(lp0
(lp1
S'./Data/Apache_AllMeasurements.csv'
p2
a(lp3
cnumpy.core.multiarray
scalar
p4
(cnumpy
dtype
p5
(S'f8'
p6
I0
I1
tp7
Rp8
(I3
S'<'
p9
NNNI-1
I-1
I0
tp10
bS';\xdfO\x8d\x97\xae\x1c@'
p11
tp12
Rp13
ag4
(g8
S'%\x10-\xd1\xe2\xda\xe7?'
p14
tp15
Rp16
aaI192
aa(lp17
S'./Data/BDBC_AllMeasurements.csv'
p18
a(lp19
g4
(g8
S'\xe2z\x14\xaeG\xe1\xde?'
p20
tp21
Rp22
ag4
(g8
S'\xca\x8fl\x0cl\x0c\xa1?'
p23
tp24
Rp25
aaI2560
aa(lp26
S'./Data/Dune.csv'
p27
a(lp28
g4
(g8
S'N\x8d\x97n\x12\x03\x19@'
p29
tp30
Rp31
ag4
(g8
S'\\\x88\xd5\x1e\xe1\xc4\xd4?'
p32
tp33
Rp34
aaI2304
aa(lp35
S'./Data/HSMGP_num.csv'
p36
a(lp37
g4
(g8
S'k\xbct\x93\x18\x84\x1b@'
p38
tp39
Rp40
ag4
(g8
S'\x9f\x0e\x07\xfe\xe4\xe7\xce?'
p41
tp42
Rp43
aaI3456
aa(lp44
S'./Data/lrzip.csv'
p45
a(lp46
g4
(g8
S'H\xe1z\x14\xaeG\x18@'
p47
tp48
Rp49
ag4
(g8
S's\xceB\xef\xf4\x0b\x05@'
p50
tp51
Rp52
aaI432
aa(lp53
S'./Data/rs-6d-c3_obj1.csv'
p54
a(lp55
g4
(g8
S'\x02+\x87\x16\xd9\xce @'
p56
tp57
Rp58
ag4
(g8
S'\xb1\xe5\xf4\x0b\xfe\xb9\x00@'
p59
tp60
Rp61
aaI3840
aa(lp62
S'./Data/rs-6d-c3_obj2.csv'
p63
a(lp64
g4
(g8
S'\xdd$\x06\x81\x95\x03"@'
p65
tp66
Rp67
ag4
(g8
S'o\x03\xdc}}\x11\xff?'
p68
tp69
Rp70
aaI3840
aa(lp71
S'./Data/sol-6d-c2-obj1.csv'
p72
a(lp73
g4
(g8
S'\xdeO\x8d\x97n\nC@'
p74
tp75
Rp76
ag4
(g8
S'\xb5\xf2\x8d\x17\xd6\x031@'
p77
tp78
Rp79
aaI2866
aa(lp80
S'./Data/sol-6d-c2-obj2.csv'
p81
a(lp82
g4
(g8
S'Zd;\xdfO!S@'
p83
tp84
Rp85
ag4
(g8
S';\x95\xcc\xa64\xa35@'
p86
tp87
Rp88
aaI2862
aa(lp89
S'./Data/sort_256_obj2.csv'
p90
a(lp91
g4
(g8
S' \xb0rh\x91-\x1b@'
p92
tp93
Rp94
ag4
(g8
S'\xbc\xb2\x1f\xc0b\x8e\xf3?'
p95
tp96
Rp97
aaI206
aa(lp98
S'./Data/SQL_AllMeasurements.csv'
p99
a(lp100
g4
(g8
S'\xac\x1cZd;\x9f\x11@'
p101
tp102
Rp103
ag4
(g8
S"\x10'T\xb6}<\xb6?"
p104
tp105
Rp106
aaI4653
aa(lp107
S'./Data/wc+rs-3d-c4-obj1.csv'
p108
a(lp109
g4
(g8
S'\x07\x81\x95C\x8b\xec$@'
p110
tp111
Rp112
ag4
(g8
S'\xdaS8X#\x17\x06@'
p113
tp114
Rp115
aaI196
aa(lp116
S'./Data/wc+rs-3d-c4-obj2.csv'
p117
a(lp118
g4
(g8
S'\xfa~j\xbct#S@'
p119
tp120
Rp121
ag4
(g8
S'\x156s8~\x82S@'
p122
tp123
Rp124
aaI196
aa(lp125
S'./Data/wc+sol-3d-c4-obj1.csv'
p126
a(lp127
g4
(g8
S'+\x87\x16\xd9\xce\xb7(@'
p128
tp129
Rp130
ag4
(g8
S'\xb9}\xe2-\xcd\xfc\x02@'
p131
tp132
Rp133
aaI196
aa(lp134
S'./Data/wc+sol-3d-c4-obj2.csv'
p135
a(lp136
g4
(g8
S'\xb6\xc8v\xbe\x9f\nG@'
p137
tp138
Rp139
ag4
(g8
S'\xeb\x86G\xfa)\xa5D@'
p140
tp141
Rp142
aaI196
aa(lp143
S'./Data/wc+wc-3d-c4-obj1.csv'
p144
a(lp145
g4
(g8
S'\xd2"\xdb\xf9~\xca/@'
p146
tp147
Rp148
ag4
(g8
S'\x06}\x9c\xbc\xd0p\x13@'
p149
tp150
Rp151
aaI196
aa(lp152
S'./Data/wc+wc-3d-c4-obj2.csv'
p153
a(lp154
g4
(g8
S'e;\xdfO\x8d_H@'
p155
tp156
Rp157
ag4
(g8
S'J.nL-\x0f4@'
p158
tp159
Rp160
aaI196
aa(lp161
S'./Data/wc-3d-c4_obj2.csv'
p162
a(lp163
g4
(g8
S'5^\xbaI\x0c:F@'
p164
tp165
Rp166
ag4
(g8
S'\xa2\xefl\xe8b\xc71@'
p167
tp168
Rp169
aaI756
aa(lp170
S'./Data/wc-6d-c1-obj1.csv'
p171
a(lp172
g4
(g8
S'\xa6\xc6K7\x89\xc1\x1d@'
p173
tp174
Rp175
ag4
(g8
S'\xb0\xc6\xc1\x86\x038\xed?'
p176
tp177
Rp178
aaI2880
aa(lp179
S'./Data/wc-6d-c1-obj2.csv'
p180
a(lp181
g4
(g8
S'm\xe7\xfb\xa9\xf1\xf2 @'
p182
tp183
Rp184
ag4
(g8
S'\x01\t0L\xc5\xa2\xd8?'
p185
tp186
Rp187
aaI2880
aa(lp188
S'./Data/WGet.csv'
p189
a(lp190
g4
(g8
S'[\x8f\xc2\xf5(\xdc\x12@'
p191
tp192
Rp193
ag4
(g8
S'\x0f\xc4\xfeZ\t\x14\xfc?'
p194
tp195
Rp196
aaI188
aa(lp197
S'./Data/X264_AllMeasurements.csv'
p198
a(lp199
g4
(g8
S'Y9\xb4\xc8v\xbe\xc7?'
p200
tp201
Rp202
ag4
(g8
S'=\xd0\x0b,\x86\xb2\xa1?'
p203
tp204
Rp205
aaI1152
aa.