(dp0
S'BDBC_AllMeasurements'
p1
(dp2
S'mmre_min_rank'
p3
(lp4
F0.0
aF2.0
aF2.0
aF46.0
aF1.0
aF1.0
aF26.0
aF0.0
aF6.0
aF1.0
aF0.0
aF0.0
aF17.0
aF11.0
aF1.0
aF24.0
aF25.0
aF0.0
aF14.0
aF19.0
asS'rank_train_set'
p5
(lp6
F36.0
aF57.0
aF39.0
aF33.0
aF26.0
aF66.0
aF43.0
aF15.0
aF34.0
aF87.0
aF22.0
aF22.0
aF25.0
aF50.0
aF147.0
aF28.0
aF14.0
aF62.0
aF20.0
aF86.0
asS'rank_min_rank'
p7
(lp8
F0.0
aF0.0
aF1.0
aF48.0
aF0.0
aF1.0
aF1.0
aF0.0
aF6.0
aF3.0
aF0.0
aF0.0
aF52.0
aF0.0
aF5.0
aF4.0
aF46.0
aF7.0
aF0.0
aF0.0
asS'mmre_train_set'
p9
(lp10
F58.0
aF36.0
aF51.0
aF33.0
aF43.0
aF47.0
aF44.0
aF49.0
aF53.0
aF45.0
aF40.0
aF42.0
aF42.0
aF47.0
aF35.0
aF55.0
aF51.0
aF48.0
aF37.0
aF42.0
assS'X264_AllMeasurements'
p11
(dp12
g3
(lp13
F0.0
aF1.0
aF0.0
aF0.0
aF5.0
aF0.0
aF0.0
aF0.0
aF4.0
aF0.0
aF0.0
aF1.0
aF0.0
aF0.0
aF0.0
aF4.0
aF4.0
aF0.0
aF0.0
aF0.0
asg5
(lp14
F76.0
aF25.0
aF30.0
aF52.0
aF15.0
aF55.0
aF34.0
aF45.0
aF15.0
aF27.0
aF23.0
aF69.0
aF15.0
aF80.0
aF26.0
aF19.0
aF24.0
aF89.0
aF20.0
aF29.0
asg7
(lp15
F0.0
aF1.0
aF0.0
aF8.0
aF1.0
aF0.0
aF2.0
aF5.0
aF4.0
aF2.0
aF10.0
aF0.0
aF1.0
aF0.0
aF3.0
aF15.0
aF0.0
aF0.0
aF18.0
aF9.0
asg9
(lp16
F13.0
aF23.0
aF10.0
aF10.0
aF10.0
aF16.0
aF11.0
aF10.0
aF16.0
aF10.0
aF12.0
aF15.0
aF15.0
aF15.0
aF10.0
aF10.0
aF14.0
aF17.0
aF12.0
aF15.0
assS'lrzip'
p17
(dp18
g3
(lp19
F0.0
aF0.0
aF0.0
aF0.0
aF0.0
aF0.0
aF1.0
aF0.0
aF0.0
aF1.0
aF0.0
aF0.0
aF0.0
aF0.0
aF0.0
aF0.0
aF0.0
aF0.0
aF0.0
aF0.0
asg5
(lp20
F23.0
aF73.0
aF15.0
aF26.0
aF22.0
aF14.0
aF34.0
aF30.0
aF14.0
aF38.0
aF48.0
aF34.0
aF24.0
aF15.0
aF32.0
aF25.0
aF17.0
aF35.0
aF14.0
aF37.0
asg7
(lp21
F0.0
aF0.0
aF0.0
aF0.0
aF0.0
aF9.0
aF0.0
aF0.0
aF26.0
aF0.0
aF0.0
aF0.0
aF0.0
aF0.0
aF0.0
aF0.0
aF0.0
aF0.0
aF0.0
aF0.0
asg9
(lp22
F59.0
aF80.0
aF126.0
aF36.0
aF56.0
aF122.0
aF100.0
aF98.0
aF58.0
aF117.0
aF127.0
aF75.0
aF66.0
aF103.0
aF93.0
aF67.0
aF91.0
aF99.0
aF87.0
aF67.0
assS'WGet'
p23
(dp24
g3
(lp25
F0.0
aF3.0
aF0.0
aF1.0
aF4.0
aF3.0
aF0.0
aF1.0
aF4.0
aF3.0
aF16.0
aF0.0
aF0.0
aF3.0
aF0.0
aF0.0
aF1.0
aF3.0
aF7.0
aF0.0
asg5
(lp26
F28.0
aF24.0
aF74.0
aF15.0
aF19.0
aF17.0
aF17.0
aF14.0
aF74.0
aF43.0
aF28.0
aF42.0
aF14.0
aF30.0
aF41.0
aF41.0
aF45.0
aF28.0
aF23.0
aF21.0
asg7
(lp27
F0.0
aF2.0
aF5.0
aF1.0
aF2.0
aF0.0
aF7.0
aF3.0
aF2.0
aF17.0
aF2.0
aF0.0
aF0.0
aF0.0
aF0.0
aF0.0
aF4.0
aF4.0
aF6.0
aF0.0
asg9
(lp28
F52.0
aF13.0
aF13.0
aF15.0
aF12.0
aF10.0
aF47.0
aF10.0
aF10.0
aF13.0
aF10.0
aF11.0
aF15.0
aF17.0
aF14.0
aF43.0
aF74.0
aF22.0
aF11.0
aF21.0
assS'SQL_AllMeasurements'
p29
(dp30
g3
(lp31
F10.0
aF1.0
aF28.0
aF0.0
aF3.0
aF48.0
aF39.0
aF1.0
aF0.0
aF1.0
aF11.0
aF8.0
aF1.0
aF6.0
aF19.0
aF18.0
aF11.0
aF11.0
aF2.0
aF18.0
asg5
(lp32
F22.0
aF54.0
aF42.0
aF51.0
aF27.0
aF19.0
aF20.0
aF40.0
aF33.0
aF20.0
aF57.0
aF15.0
aF41.0
aF21.0
aF22.0
aF43.0
aF27.0
aF14.0
aF36.0
aF71.0
asg7
(lp33
F3.0
aF31.0
aF463.0
aF0.0
aF52.0
aF29.0
aF1.0
aF151.0
aF1.0
aF1.0
aF43.0
aF16.0
aF19.0
aF492.0
aF22.0
aF0.0
aF19.0
aF21.0
aF17.0
aF39.0
asg9
(lp34
F10.0
aF10.0
aF10.0
aF10.0
aF10.0
aF10.0
aF10.0
aF10.0
aF10.0
aF10.0
aF10.0
aF10.0
aF10.0
aF10.0
aF10.0
aF10.0
aF10.0
aF10.0
aF10.0
aF10.0
assS'wc-3d-c4_obj2'
p35
(dp36
g3
(lp37
F0.0
aF1.0
aF1.0
aF0.0
aF0.0
aF0.0
aF1.0
aF1.0
aF0.0
aF0.0
aF1.0
aF0.0
aF1.0
aF0.0
aF1.0
aF0.0
aF0.0
aF1.0
aF0.0
aF0.0
asg5
(lp38
F33.0
aF29.0
aF32.0
aF85.0
aF18.0
aF17.0
aF25.0
aF67.0
aF27.0
aF92.0
aF24.0
aF21.0
aF28.0
aF45.0
aF19.0
aF50.0
aF30.0
aF36.0
aF18.0
aF14.0
asg7
(lp39
F0.0
aF1.0
aF0.0
aF0.0
aF0.0
aF0.0
aF1.0
aF0.0
aF1.0
aF0.0
aF0.0
aF0.0
aF0.0
aF0.0
aF0.0
aF0.0
aF0.0
aF0.0
aF0.0
aF0.0
asg9
(lp40
F301.0
aF301.0
aF301.0
aF301.0
aF301.0
aF301.0
aF301.0
aF117.0
aF185.0
aF301.0
aF301.0
aF301.0
aF301.0
aF301.0
aF301.0
aF301.0
aF301.0
aF301.0
aF301.0
aF301.0
assS'HSMGP_num'
p41
(dp42
g3
(lp43
F2.0
aF0.0
aF0.0
aF9.0
aF0.0
aF2.0
aF1.0
aF0.0
aF0.0
aF0.0
aF2.0
aF0.0
aF2.0
aF2.0
aF2.0
aF0.0
aF0.0
aF0.0
aF1.0
aF6.0
asg5
(lp44
F25.0
aF81.0
aF14.0
aF32.0
aF40.0
aF63.0
aF67.0
aF52.0
aF47.0
aF58.0
aF14.0
aF18.0
aF83.0
aF15.0
aF17.0
aF15.0
aF39.0
aF18.0
aF26.0
aF17.0
asg7
(lp45
F1.0
aF43.0
aF0.0
aF2.0
aF0.0
aF0.0
aF0.0
aF1.0
aF0.0
aF5.0
aF0.0
aF2.0
aF4.0
aF29.0
aF1.0
aF16.0
aF0.0
aF3.0
aF0.0
aF0.0
asg9
(lp46
F427.0
aF433.0
aF441.0
aF463.0
aF592.0
aF522.0
aF457.0
aF546.0
aF529.0
aF405.0
aF491.0
aF420.0
aF488.0
aF485.0
aF413.0
aF423.0
aF490.0
aF401.0
aF441.0
aF394.0
assS'Dune'
p47
(dp48
g3
(lp49
F2.0
aF1.0
aF1.0
aF1.0
aF0.0
aF2.0
aF0.0
aF1.0
aF0.0
aF2.0
aF3.0
aF0.0
aF4.0
aF0.0
aF9.0
aF0.0
aF1.0
aF2.0
aF40.0
aF1.0
asg5
(lp50
F34.0
aF54.0
aF22.0
aF17.0
aF28.0
aF42.0
aF41.0
aF43.0
aF37.0
aF78.0
aF25.0
aF64.0
aF87.0
aF19.0
aF67.0
aF23.0
aF36.0
aF15.0
aF30.0
aF44.0
asg7
(lp51
F4.0
aF0.0
aF1.0
aF12.0
aF6.0
aF50.0
aF90.0
aF1.0
aF0.0
aF4.0
aF7.0
aF14.0
aF3.0
aF1.0
aF0.0
aF29.0
aF0.0
aF2.0
aF57.0
aF1.0
asg9
(lp52
F91.0
aF87.0
aF65.0
aF147.0
aF93.0
aF182.0
aF116.0
aF44.0
aF142.0
aF117.0
aF95.0
aF39.0
aF95.0
aF154.0
aF126.0
aF123.0
aF104.0
aF173.0
aF124.0
aF79.0
assS'wc+wc-3d-c4-obj1'
p53
(dp54
g3
(lp55
F0.0
aF0.0
aF0.0
aF0.0
aF0.0
aF0.0
aF0.0
aF0.0
aF0.0
aF0.0
aF0.0
aF0.0
aF0.0
aF0.0
aF0.0
aF0.0
aF0.0
aF0.0
aF0.0
aF0.0
asg5
(lp56
F71.0
aF17.0
aF14.0
aF25.0
aF29.0
aF21.0
aF56.0
aF15.0
aF23.0
aF35.0
aF20.0
aF25.0
aF16.0
aF39.0
aF20.0
aF41.0
aF23.0
aF20.0
aF18.0
aF16.0
asg7
(lp57
F0.0
aF0.0
aF0.0
aF0.0
aF0.0
aF0.0
aF0.0
aF5.0
aF8.0
aF0.0
aF0.0
aF0.0
aF0.0
aF0.0
aF0.0
aF0.0
aF1.0
aF11.0
aF0.0
aF1.0
asg9
(lp58
F77.0
aF77.0
aF55.0
aF77.0
aF77.0
aF77.0
aF42.0
aF49.0
aF77.0
aF77.0
aF77.0
aF65.0
aF53.0
aF77.0
aF77.0
aF77.0
aF77.0
aF77.0
aF77.0
aF63.0
assS'wc+wc-3d-c4-obj2'
p59
(dp60
g3
(lp61
F0.0
aF0.0
aF0.0
aF0.0
aF0.0
aF0.0
aF0.0
aF0.0
aF0.0
aF0.0
aF0.0
aF0.0
aF0.0
aF0.0
aF0.0
aF0.0
aF0.0
aF0.0
aF0.0
aF0.0
asg5
(lp62
F58.0
aF22.0
aF34.0
aF17.0
aF21.0
aF21.0
aF32.0
aF41.0
aF23.0
aF17.0
aF39.0
aF40.0
aF27.0
aF16.0
aF15.0
aF18.0
aF15.0
aF19.0
aF17.0
aF21.0
asg7
(lp63
F0.0
aF0.0
aF0.0
aF0.0
aF0.0
aF0.0
aF0.0
aF0.0
aF0.0
aF0.0
aF0.0
aF0.0
aF0.0
aF0.0
aF0.0
aF0.0
aF1.0
aF0.0
aF0.0
aF0.0
asg9
(lp64
F77.0
aF77.0
aF77.0
aF77.0
aF77.0
aF77.0
aF77.0
aF77.0
aF77.0
aF77.0
aF77.0
aF77.0
aF77.0
aF77.0
aF77.0
aF77.0
aF77.0
aF77.0
aF77.0
aF77.0
assS'wc-6d-c1-obj2'
p65
(dp66
g3
(lp67
F0.0
aF0.0
aF6.0
aF5.0
aF0.0
aF0.0
aF0.0
aF0.0
aF2.0
aF0.0
aF1.0
aF0.0
aF1.0
aF0.0
aF0.0
aF0.0
aF0.0
aF0.0
aF0.0
aF0.0
asg5
(lp68
F20.0
aF15.0
aF57.0
aF63.0
aF16.0
aF31.0
aF39.0
aF31.0
aF43.0
aF63.0
aF33.0
aF50.0
aF111.0
aF71.0
aF77.0
aF56.0
aF39.0
aF59.0
aF64.0
aF33.0
asg7
(lp69
F0.0
aF0.0
aF29.0
aF0.0
aF2.0
aF0.0
aF2.0
aF3.0
aF40.0
aF0.0
aF0.0
aF1.0
aF3.0
aF0.0
aF3.0
aF0.0
aF11.0
aF1.0
aF8.0
aF0.0
asg9
(lp70
F264.0
aF329.0
aF529.0
aF395.0
aF315.0
aF279.0
aF476.0
aF326.0
aF429.0
aF323.0
aF214.0
aF401.0
aF326.0
aF431.0
aF351.0
aF337.0
aF552.0
aF443.0
aF357.0
aF285.0
assS'wc-6d-c1-obj1'
p71
(dp72
g3
(lp73
F1.0
aF0.0
aF0.0
aF1.0
aF0.0
aF0.0
aF4.0
aF3.0
aF0.0
aF0.0
aF0.0
aF0.0
aF1.0
aF0.0
aF2.0
aF0.0
aF2.0
aF0.0
aF1.0
aF1.0
asg5
(lp74
F16.0
aF48.0
aF28.0
aF59.0
aF26.0
aF30.0
aF21.0
aF54.0
aF19.0
aF31.0
aF34.0
aF17.0
aF17.0
aF36.0
aF79.0
aF17.0
aF50.0
aF40.0
aF54.0
aF40.0
asg7
(lp75
F2.0
aF3.0
aF0.0
aF0.0
aF0.0
aF1.0
aF2.0
aF34.0
aF147.0
aF2.0
aF2.0
aF0.0
aF6.0
aF3.0
aF5.0
aF3.0
aF0.0
aF3.0
aF0.0
aF25.0
asg9
(lp76
F248.0
aF450.0
aF399.0
aF364.0
aF388.0
aF327.0
aF426.0
aF440.0
aF374.0
aF381.0
aF301.0
aF420.0
aF415.0
aF363.0
aF514.0
aF477.0
aF613.0
aF330.0
aF581.0
aF423.0
assS'rs-6d-c3_obj2'
p77
(dp78
g3
(lp79
F1.0
aF0.0
aF2.0
aF1.0
aF3.0
aF0.0
aF6.0
aF1.0
aF2.0
aF0.0
aF5.0
aF1.0
aF1.0
aF6.0
aF0.0
aF0.0
aF0.0
aF2.0
aF1.0
aF0.0
asg5
(lp80
F25.0
aF41.0
aF23.0
aF76.0
aF38.0
aF19.0
aF47.0
aF49.0
aF19.0
aF35.0
aF70.0
aF14.0
aF17.0
aF16.0
aF16.0
aF21.0
aF27.0
aF21.0
aF19.0
aF26.0
asg7
(lp81
F0.0
aF0.0
aF2.0
aF1.0
aF0.0
aF139.0
aF0.0
aF0.0
aF0.0
aF0.0
aF0.0
aF0.0
aF3.0
aF0.0
aF3.0
aF8.0
aF68.0
aF9.0
aF9.0
aF0.0
asg9
(lp82
F759.0
aF670.0
aF515.0
aF632.0
aF635.0
aF979.0
aF463.0
aF736.0
aF736.0
aF654.0
aF1057.0
aF881.0
aF613.0
aF1049.0
aF685.0
aF674.0
aF461.0
aF757.0
aF688.0
aF667.0
assS'rs-6d-c3_obj1'
p83
(dp84
g3
(lp85
F0.0
aF0.0
aF0.0
aF0.0
aF0.0
aF1.0
aF1.0
aF0.0
aF0.0
aF0.0
aF0.0
aF0.0
aF0.0
aF0.0
aF0.0
aF0.0
aF0.0
aF0.0
aF0.0
aF1.0
asg5
(lp86
F17.0
aF20.0
aF15.0
aF28.0
aF17.0
aF23.0
aF15.0
aF36.0
aF54.0
aF14.0
aF101.0
aF14.0
aF14.0
aF42.0
aF45.0
aF60.0
aF27.0
aF16.0
aF37.0
aF37.0
asg7
(lp87
F20.0
aF1.0
aF1.0
aF25.0
aF0.0
aF0.0
aF3.0
aF24.0
aF48.0
aF0.0
aF5.0
aF0.0
aF0.0
aF3.0
aF125.0
aF0.0
aF26.0
aF18.0
aF0.0
aF0.0
asg9
(lp88
F559.0
aF399.0
aF457.0
aF962.0
aF505.0
aF570.0
aF1041.0
aF566.0
aF930.0
aF736.0
aF443.0
aF686.0
aF712.0
aF680.0
aF813.0
aF504.0
aF1535.0
aF774.0
aF327.0
aF627.0
assS'Apache_AllMeasurements'
p89
(dp90
g3
(lp91
F0.0
aF2.0
aF2.0
aF1.0
aF16.0
aF0.0
aF0.0
aF0.0
aF0.0
aF1.0
aF0.0
aF0.0
aF0.0
aF0.0
aF0.0
aF0.0
aF0.0
aF0.0
aF0.0
aF1.0
asg5
(lp92
F62.0
aF26.0
aF17.0
aF22.0
aF16.0
aF75.0
aF24.0
aF25.0
aF14.0
aF30.0
aF16.0
aF28.0
aF24.0
aF18.0
aF30.0
aF30.0
aF26.0
aF21.0
aF32.0
aF21.0
asg7
(lp93
F0.0
aF2.0
aF0.0
aF0.0
aF0.0
aF0.0
aF0.0
aF0.0
aF0.0
aF0.0
aF1.0
aF0.0
aF0.0
aF0.0
aF0.0
aF0.0
aF0.0
aF0.0
aF0.0
aF0.0
asg9
(lp94
F49.0
aF10.0
aF20.0
aF20.0
aF11.0
aF12.0
aF19.0
aF22.0
aF13.0
aF17.0
aF25.0
aF18.0
aF10.0
aF14.0
aF18.0
aF20.0
aF11.0
aF11.0
aF14.0
aF15.0
assS'wc+sol-3d-c4-obj2'
p95
(dp96
g3
(lp97
F0.0
aF0.0
aF0.0
aF0.0
aF0.0
aF0.0
aF0.0
aF0.0
aF0.0
aF0.0
aF0.0
aF0.0
aF0.0
aF0.0
aF0.0
aF0.0
aF1.0
aF1.0
aF0.0
aF0.0
asg5
(lp98
F20.0
aF18.0
aF48.0
aF19.0
aF77.0
aF21.0
aF14.0
aF42.0
aF24.0
aF16.0
aF17.0
aF14.0
aF16.0
aF22.0
aF45.0
aF19.0
aF34.0
aF17.0
aF18.0
aF18.0
asg7
(lp99
F1.0
aF0.0
aF0.0
aF0.0
aF0.0
aF1.0
aF0.0
aF0.0
aF2.0
aF0.0
aF0.0
aF0.0
aF1.0
aF2.0
aF0.0
aF0.0
aF0.0
aF0.0
aF2.0
aF0.0
asg9
(lp100
F77.0
aF77.0
aF77.0
aF77.0
aF77.0
aF77.0
aF77.0
aF77.0
aF77.0
aF77.0
aF77.0
aF77.0
aF77.0
aF77.0
aF77.0
aF77.0
aF77.0
aF77.0
aF77.0
aF77.0
assS'wc+sol-3d-c4-obj1'
p101
(dp102
g3
(lp103
F0.0
aF0.0
aF0.0
aF0.0
aF0.0
aF0.0
aF0.0
aF0.0
aF0.0
aF0.0
aF0.0
aF0.0
aF0.0
aF0.0
aF0.0
aF0.0
aF0.0
aF0.0
aF0.0
aF0.0
asg5
(lp104
F21.0
aF19.0
aF16.0
aF39.0
aF45.0
aF24.0
aF14.0
aF27.0
aF24.0
aF16.0
aF66.0
aF15.0
aF30.0
aF20.0
aF30.0
aF32.0
aF22.0
aF18.0
aF34.0
aF18.0
asg7
(lp105
F0.0
aF0.0
aF0.0
aF0.0
aF0.0
aF0.0
aF0.0
aF0.0
aF0.0
aF3.0
aF0.0
aF0.0
aF0.0
aF0.0
aF0.0
aF0.0
aF2.0
aF0.0
aF0.0
aF0.0
asg9
(lp106
F77.0
aF77.0
aF77.0
aF77.0
aF77.0
aF68.0
aF75.0
aF77.0
aF77.0
aF57.0
aF65.0
aF77.0
aF71.0
aF77.0
aF48.0
aF69.0
aF77.0
aF50.0
aF77.0
aF77.0
assS'wc+rs-3d-c4-obj1'
p107
(dp108
g3
(lp109
F0.0
aF0.0
aF0.0
aF0.0
aF0.0
aF0.0
aF0.0
aF0.0
aF0.0
aF0.0
aF0.0
aF0.0
aF0.0
aF0.0
aF0.0
aF0.0
aF0.0
aF0.0
aF0.0
aF0.0
asg5
(lp110
F14.0
aF14.0
aF33.0
aF31.0
aF41.0
aF17.0
aF28.0
aF28.0
aF30.0
aF42.0
aF41.0
aF18.0
aF28.0
aF38.0
aF23.0
aF50.0
aF17.0
aF27.0
aF16.0
aF15.0
asg7
(lp111
F2.0
aF0.0
aF0.0
aF0.0
aF0.0
aF0.0
aF0.0
aF0.0
aF0.0
aF0.0
aF0.0
aF2.0
aF0.0
aF0.0
aF0.0
aF0.0
aF0.0
aF0.0
aF0.0
aF3.0
asg9
(lp112
F40.0
aF54.0
aF67.0
aF77.0
aF76.0
aF73.0
aF45.0
aF77.0
aF62.0
aF51.0
aF46.0
aF44.0
aF77.0
aF64.0
aF22.0
aF55.0
aF63.0
aF64.0
aF42.0
aF36.0
assS'wc+rs-3d-c4-obj2'
p113
(dp114
g3
(lp115
F0.0
aF0.0
aF0.0
aF0.0
aF0.0
aF0.0
aF0.0
aF0.0
aF0.0
aF0.0
aF0.0
aF0.0
aF0.0
aF0.0
aF0.0
aF0.0
aF0.0
aF0.0
aF0.0
aF0.0
asg5
(lp116
F14.0
aF23.0
aF20.0
aF15.0
aF15.0
aF23.0
aF23.0
aF26.0
aF37.0
aF33.0
aF14.0
aF21.0
aF35.0
aF37.0
aF18.0
aF14.0
aF14.0
aF31.0
aF18.0
aF15.0
asg7
(lp117
F0.0
aF0.0
aF0.0
aF0.0
aF1.0
aF0.0
aF0.0
aF0.0
aF0.0
aF0.0
aF0.0
aF0.0
aF8.0
aF0.0
aF0.0
aF0.0
aF0.0
aF0.0
aF0.0
aF3.0
asg9
(lp118
F77.0
aF77.0
aF77.0
aF77.0
aF77.0
aF77.0
aF77.0
aF77.0
aF77.0
aF77.0
aF77.0
aF77.0
aF77.0
aF77.0
aF77.0
aF77.0
aF77.0
aF77.0
aF77.0
aF77.0
assS'sort_256_obj2'
p119
(dp120
g3
(lp121
F0.0
aF0.0
aF0.0
aF0.0
aF0.0
aF0.0
aF0.0
aF0.0
aF0.0
aF0.0
aF0.0
aF0.0
aF4.0
aF0.0
aF0.0
aF0.0
aF0.0
aF0.0
aF0.0
aF0.0
asg5
(lp122
F21.0
aF25.0
aF31.0
aF16.0
aF31.0
aF24.0
aF25.0
aF16.0
aF33.0
aF15.0
aF30.0
aF22.0
aF19.0
aF49.0
aF54.0
aF39.0
aF53.0
aF18.0
aF47.0
aF22.0
asg7
(lp123
F1.0
aF0.0
aF0.0
aF0.0
aF0.0
aF0.0
aF0.0
aF0.0
aF0.0
aF0.0
aF6.0
aF0.0
aF0.0
aF0.0
aF0.0
aF0.0
aF0.0
aF0.0
aF0.0
aF0.0
asg9
(lp124
F20.0
aF13.0
aF56.0
aF25.0
aF37.0
aF46.0
aF22.0
aF11.0
aF65.0
aF13.0
aF23.0
aF30.0
aF42.0
aF12.0
aF26.0
aF32.0
aF31.0
aF37.0
aF24.0
aF43.0
assS'sol-6d-c2-obj1'
p125
(dp126
g3
(lp127
F4.0
aF4.0
aF11.0
aF5.0
aF3.0
aF4.0
aF2.0
aF0.0
aF2.0
aF8.0
aF2.0
aF6.0
aF3.0
aF2.0
aF3.0
aF3.0
aF2.0
aF0.0
aF7.0
aF10.0
asg5
(lp128
F27.0
aF30.0
aF19.0
aF25.0
aF17.0
aF40.0
aF15.0
aF41.0
aF40.0
aF56.0
aF113.0
aF50.0
aF42.0
aF33.0
aF45.0
aF28.0
aF39.0
aF22.0
aF15.0
aF16.0
asg7
(lp129
F6.0
aF7.0
aF0.0
aF14.0
aF0.0
aF9.0
aF5.0
aF2.0
aF2.0
aF11.0
aF4.0
aF1.0
aF3.0
aF3.0
aF4.0
aF2.0
aF2.0
aF3.0
aF32.0
aF8.0
asg9
(lp130
F1145.0
aF1145.0
aF1145.0
aF1145.0
aF1145.0
aF1145.0
aF1145.0
aF1145.0
aF1145.0
aF1145.0
aF1145.0
aF1145.0
aF1145.0
aF1145.0
aF1145.0
aF1145.0
aF1145.0
aF1145.0
aF1145.0
aF1145.0
assS'sol-6d-c2-obj2'
p131
(dp132
g3
(lp133
F0.0
aF5.0
aF0.0
aF0.0
aF1.0
aF0.0
aF0.0
aF1.0
aF0.0
aF0.0
aF0.0
aF0.0
aF2.0
aF0.0
aF0.0
aF1.0
aF0.0
aF0.0
aF0.0
aF1.0
asg5
(lp134
F37.0
aF30.0
aF21.0
aF23.0
aF44.0
aF32.0
aF19.0
aF34.0
aF22.0
aF18.0
aF21.0
aF29.0
aF17.0
aF48.0
aF41.0
aF43.0
aF83.0
aF21.0
aF23.0
aF18.0
asg7
(lp135
F5.0
aF5.0
aF50.0
aF140.0
aF3.0
aF5.0
aF2.0
aF21.0
aF1.0
aF0.0
aF11.0
aF0.0
aF1.0
aF18.0
aF0.0
aF0.0
aF20.0
aF14.0
aF0.0
aF22.0
asg9
(lp136
F1143.0
aF1143.0
aF1143.0
aF1143.0
aF1143.0
aF1143.0
aF1143.0
aF1143.0
aF1143.0
aF1143.0
aF1143.0
aF1143.0
aF1143.0
aF1143.0
aF1143.0
aF1143.0
aF1143.0
aF1143.0
aF1143.0
aF1143.0
ass.