(dp0
S'./Data/BDBC_AllMeasurements.csv'
p1
(dp2
S'rank_rd'
p3
(lp4
I1
aI0
aI0
aI0
aI0
aI0
aI0
aI0
aI0
aI0
aI0
aI0
aI0
aI10
aI0
aI28
aI0
aI0
aI0
aI12
asS'mmre_rd'
p5
(lp6
I0
aI0
aI0
aI0
aI3
aI0
aI0
aI0
aI0
aI0
aI0
aI52
aI3
aI0
aI0
aI0
aI0
aI0
aI0
aI2
asS'rank_eval'
p7
(lp8
I39
aI69
aI25
aI18
aI44
aI53
aI31
aI48
aI75
aI76
aI38
aI49
aI69
aI40
aI56
aI17
aI19
aI67
aI36
aI85
asS'mmre_eval'
p9
(lp10
I57
aI34
aI71
aI51
aI31
aI26
aI36
aI30
aI49
aI51
aI65
aI27
aI31
aI37
aI54
aI36
aI79
aI38
aI55
aI52
assS'./Data/Apache_AllMeasurements.csv'
p11
(dp12
g3
(lp13
I0
aI0
aI0
aI0
aI0
aI0
aI0
aI0
aI0
aI0
aI0
aI0
aI0
aI0
aI0
aI0
aI0
aI0
aI0
aI0
asg5
(lp14
I0
aI0
aI0
aI0
aI0
aI0
aI0
aI0
aI0
aI0
aI0
aI0
aI0
aI0
aI0
aI0
aI0
aI0
aI0
aI0
asg7
(lp15
I14
aI14
aI14
aI14
aI14
aI14
aI14
aI14
aI14
aI14
aI14
aI14
aI14
aI14
aI14
aI14
aI14
aI14
aI14
aI14
asg9
(lp16
I75
aI75
aI75
aI75
aI75
aI75
aI75
aI75
aI75
aI75
aI75
aI75
aI75
aI75
aI75
aI75
aI75
aI75
aI75
aI75
ass.