(dp0
S'./Data/sol-6d-c2-obj1.csv'
p1
(dp2
S'rank_rd'
p3
(lp4
I16
aI1
aI19
aI19
aI10
aI0
aI0
aI9
aI5
aI0
aI0
aI0
aI17
aI0
aI0
aI0
aI0
aI19
aI7
aI2
asS'mmre_rd'
p5
(lp6
I0
aI2
aI6
aI8
aI0
aI12
aI1
aI5
aI2
aI2
aI0
aI1
aI13
aI0
aI3
aI2
aI0
aI0
aI4
aI6
asS'rank_eval'
p7
(lp8
I14
aI14
aI14
aI14
aI14
aI19
aI16
aI14
aI18
aI22
aI14
aI14
aI14
aI15
aI14
aI14
aI20
aI21
aI23
aI41
asS'mmre_eval'
p9
(lp10
I1145
aI1145
aI1145
aI1145
aI1145
aI1145
aI1145
aI1145
aI1145
aI1145
aI1145
aI1145
aI1145
aI1145
aI1145
aI1145
aI1145
aI1145
aI1145
aI1145
assS'./Data/rs-6d-c3_obj2.csv'
p11
(dp12
g3
(lp13
I40
aI37
aI0
aI0
aI1
aI0
aI39
aI1
aI0
aI1
aI10
aI111
aI0
aI36
aI6
aI48
aI0
aI27
aI0
aI0
asg5
(lp14
I0
aI0
aI0
aI0
aI0
aI1
aI2
aI0
aI0
aI0
aI0
aI0
aI0
aI0
aI0
aI0
aI0
aI1
aI0
aI0
asg7
(lp15
I35
aI50
aI34
aI42
aI39
aI14
aI65
aI21
aI38
aI15
aI32
aI27
aI31
aI16
aI73
aI22
aI20
aI25
aI120
aI36
asg9
(lp16
I1535
aI1535
aI1535
aI1535
aI1535
aI1535
aI1535
aI1535
aI1535
aI1535
aI1535
aI1535
aI1535
aI1535
aI1535
aI1535
aI1535
aI1535
aI1535
aI1535
assS'./Data/lrzip.csv'
p17
(dp18
g3
(lp19
I0
aI0
aI0
aI0
aI0
aI0
aI0
aI0
aI0
aI0
aI0
aI0
aI0
aI0
aI0
aI0
aI0
aI0
aI0
aI0
asg5
(lp20
I0
aI0
aI0
aI0
aI0
aI0
aI0
aI0
aI0
aI0
aI0
aI0
aI0
aI0
aI0
aI0
aI0
aI0
aI0
aI0
asg7
(lp21
I14
aI14
aI14
aI14
aI14
aI14
aI14
aI14
aI14
aI14
aI14
aI14
aI14
aI14
aI14
aI14
aI14
aI14
aI14
aI14
asg9
(lp22
I171
aI171
aI171
aI171
aI171
aI171
aI171
aI171
aI171
aI171
aI171
aI171
aI171
aI171
aI171
aI171
aI171
aI171
aI171
aI171
assS'./Data/Dune.csv'
p23
(dp24
g3
(lp25
I0
aI0
aI0
aI0
aI0
aI0
aI0
aI0
aI0
aI0
aI0
aI0
aI0
aI0
aI0
aI0
aI0
aI0
aI0
aI0
asg5
(lp26
I0
aI0
aI0
aI0
aI0
aI0
aI0
aI0
aI0
aI0
aI0
aI0
aI0
aI0
aI0
aI0
aI0
aI0
aI0
aI0
asg7
(lp27
I14
aI14
aI14
aI14
aI14
aI14
aI14
aI14
aI14
aI14
aI14
aI14
aI14
aI14
aI14
aI14
aI14
aI14
aI14
aI14
asg9
(lp28
I920
aI920
aI920
aI920
aI920
aI920
aI920
aI920
aI920
aI920
aI920
aI920
aI920
aI920
aI920
aI920
aI920
aI920
aI920
aI920
assS'./Data/Apache_AllMeasurements.csv'
p29
(dp30
g3
(lp31
I0
aI0
aI0
aI0
aI0
aI0
aI0
aI0
aI0
aI0
aI0
aI0
aI0
aI0
aI0
aI0
aI0
aI0
aI0
aI0
asg5
(lp32
I0
aI0
aI0
aI0
aI0
aI0
aI0
aI0
aI0
aI0
aI0
aI0
aI0
aI0
aI0
aI0
aI0
aI0
aI0
aI0
asg7
(lp33
I14
aI14
aI14
aI14
aI14
aI14
aI14
aI14
aI14
aI14
aI14
aI14
aI14
aI14
aI14
aI14
aI14
aI14
aI14
aI14
asg9
(lp34
I75
aI75
aI75
aI75
aI75
aI75
aI75
aI75
aI75
aI75
aI75
aI75
aI75
aI75
aI75
aI75
aI75
aI75
aI75
aI75
assS'./Data/BDBC_AllMeasurements.csv'
p35
(dp36
g3
(lp37
I1
aI0
aI0
aI0
aI0
aI0
aI0
aI0
aI0
aI0
aI0
aI0
aI0
aI10
aI0
aI28
aI0
aI0
aI0
aI12
asg5
(lp38
I0
aI0
aI0
aI0
aI3
aI0
aI0
aI0
aI0
aI0
aI0
aI52
aI3
aI0
aI0
aI0
aI0
aI0
aI0
aI2
asg7
(lp39
I39
aI69
aI25
aI18
aI44
aI53
aI31
aI48
aI75
aI76
aI38
aI49
aI69
aI40
aI56
aI17
aI19
aI67
aI36
aI85
asg9
(lp40
I57
aI34
aI71
aI51
aI31
aI26
aI36
aI30
aI49
aI51
aI65
aI27
aI31
aI37
aI54
aI36
aI79
aI38
aI55
aI52
assS'./Data/rs-6d-c3_obj1.csv'
p41
(dp42
g3
(lp43
I0
aI0
aI0
aI0
aI0
aI0
aI0
aI0
aI0
aI0
aI0
aI0
aI0
aI0
aI0
aI0
aI0
aI0
aI0
aI0
asg5
(lp44
I0
aI0
aI0
aI0
aI0
aI0
aI0
aI0
aI0
aI0
aI0
aI0
aI0
aI0
aI0
aI0
aI0
aI0
aI0
aI0
asg7
(lp45
I24
aI14
aI14
aI14
aI16
aI14
aI14
aI14
aI14
aI14
aI14
aI14
aI14
aI21
aI16
aI14
aI14
aI14
aI15
aI14
asg9
(lp46
I1535
aI1535
aI1535
aI1535
aI1535
aI1535
aI1535
aI1535
aI1535
aI1535
aI1535
aI1535
aI1535
aI1535
aI1535
aI1535
aI1535
aI1535
aI1535
aI1535
assS'./Data/HSMGP_num.csv'
p47
(dp48
g3
(lp49
I0
aI0
aI0
aI0
aI0
aI75
aI0
aI226
aI0
aI0
aI0
aI0
aI0
aI0
aI0
aI0
aI0
aI0
aI0
aI0
asg5
(lp50
I0
aI0
aI0
aI0
aI0
aI0
aI0
aI0
aI0
aI0
aI0
aI0
aI0
aI0
aI0
aI0
aI0
aI0
aI0
aI0
asg7
(lp51
I14
aI31
aI45
aI29
aI36
aI16
aI50
aI18
aI31
aI14
aI21
aI57
aI48
aI17
aI17
aI18
aI34
aI16
aI29
aI17
asg9
(lp52
I1381
aI1381
aI1381
aI1381
aI1381
aI1381
aI1381
aI1381
aI1381
aI1381
aI1381
aI1381
aI1381
aI1381
aI1381
aI1381
aI1381
aI1381
aI1381
aI1381
ass.