(dp0
S'./Data/sol-6d-c2-obj1.csv'
p1
(dp2
S'rank_rd'
p3
(lp4
I16
aI1
aI19
aI19
aI10
aI0
aI0
aI9
aI5
aI0
aI0
aI0
aI17
aI0
aI0
aI0
aI0
aI19
aI7
aI2
asS'mmre_rd'
p5
(lp6
I0
aI2
aI6
aI8
aI0
aI12
aI1
aI5
aI2
aI2
aI0
aI1
aI13
aI0
aI3
aI2
aI0
aI0
aI4
aI6
asS'rank_eval'
p7
(lp8
I14
aI14
aI14
aI14
aI14
aI19
aI16
aI14
aI18
aI22
aI14
aI14
aI14
aI15
aI14
aI14
aI20
aI21
aI23
aI41
asS'mmre_eval'
p9
(lp10
I1145
aI1145
aI1145
aI1145
aI1145
aI1145
aI1145
aI1145
aI1145
aI1145
aI1145
aI1145
aI1145
aI1145
aI1145
aI1145
aI1145
aI1145
aI1145
aI1145
assS'./Data/rs-6d-c3_obj2.csv'
p11
(dp12
g3
(lp13
I40
aI37
aI0
aI0
aI1
aI0
aI39
aI1
aI0
aI1
aI10
aI111
aI0
aI36
aI6
aI48
aI0
aI27
aI0
aI0
asg5
(lp14
I0
aI0
aI0
aI0
aI0
aI1
aI2
aI0
aI0
aI0
aI0
aI0
aI0
aI0
aI0
aI0
aI0
aI1
aI0
aI0
asg7
(lp15
I35
aI50
aI34
aI42
aI39
aI14
aI65
aI21
aI38
aI15
aI32
aI27
aI31
aI16
aI73
aI22
aI20
aI25
aI120
aI36
asg9
(lp16
I1535
aI1535
aI1535
aI1535
aI1535
aI1535
aI1535
aI1535
aI1535
aI1535
aI1535
aI1535
aI1535
aI1535
aI1535
aI1535
aI1535
aI1535
aI1535
aI1535
assS'./Data/sol-6d-c2-obj2.csv'
p17
(dp18
g3
(lp19
I0
aI2
aI1
aI1
aI0
aI1
aI65
aI0
aI29
aI19
aI6
aI1
aI0
aI0
aI24
aI0
aI0
aI0
aI0
aI83
asg5
(lp20
I0
aI0
aI0
aI0
aI0
aI4
aI0
aI4
aI0
aI0
aI0
aI0
aI0
aI0
aI2
aI1
aI2
aI0
aI0
aI1
asg7
(lp21
I35
aI45
aI30
aI20
aI18
aI17
aI58
aI14
aI15
aI111
aI26
aI42
aI36
aI31
aI71
aI19
aI62
aI30
aI24
aI27
asg9
(lp22
I1143
aI1143
aI1143
aI1143
aI1143
aI1143
aI1143
aI1143
aI1143
aI1143
aI1143
aI1143
aI1143
aI1143
aI1143
aI1143
aI1143
aI1143
aI1143
aI1143
assS'./Data/wc+rs-3d-c4-obj2.csv'
p23
(dp24
g3
(lp25
I0
aI0
aI5
aI0
aI0
aI0
aI0
aI0
aI0
aI0
aI0
aI0
aI0
aI0
aI0
aI0
aI0
aI0
aI0
aI0
asg5
(lp26
I0
aI0
aI0
aI0
aI0
aI0
aI0
aI0
aI0
aI0
aI1
aI0
aI0
aI0
aI0
aI0
aI0
aI0
aI0
aI0
asg7
(lp27
I15
aI14
aI15
aI14
aI14
aI15
aI18
aI23
aI23
aI19
aI34
aI18
aI19
aI15
aI15
aI20
aI22
aI22
aI31
aI28
asg9
(lp28
I77
aI77
aI77
aI77
aI77
aI77
aI77
aI77
aI77
aI77
aI77
aI77
aI77
aI77
aI77
aI77
aI77
aI77
aI77
aI77
assS'./Data/wc+rs-3d-c4-obj1.csv'
p29
(dp30
g3
(lp31
I0
aI0
aI0
aI0
aI0
aI0
aI0
aI0
aI0
aI0
aI0
aI0
aI0
aI0
aI0
aI0
aI0
aI0
aI0
aI0
asg5
(lp32
I0
aI0
aI0
aI0
aI0
aI0
aI0
aI0
aI0
aI0
aI0
aI0
aI0
aI0
aI0
aI0
aI0
aI0
aI0
aI0
asg7
(lp33
I14
aI14
aI14
aI14
aI14
aI14
aI14
aI14
aI14
aI14
aI14
aI14
aI14
aI14
aI14
aI14
aI14
aI14
aI14
aI14
asg9
(lp34
I77
aI77
aI77
aI77
aI77
aI77
aI77
aI77
aI77
aI77
aI77
aI77
aI77
aI77
aI77
aI77
aI77
aI77
aI77
aI77
assS'./Data/lrzip.csv'
p35
(dp36
g3
(lp37
I0
aI0
aI0
aI0
aI0
aI0
aI0
aI0
aI0
aI0
aI0
aI0
aI0
aI0
aI0
aI0
aI0
aI0
aI0
aI0
asg5
(lp38
I0
aI0
aI0
aI0
aI0
aI0
aI0
aI0
aI0
aI0
aI0
aI0
aI0
aI0
aI0
aI0
aI0
aI0
aI0
aI0
asg7
(lp39
I14
aI14
aI14
aI14
aI14
aI14
aI14
aI14
aI14
aI14
aI14
aI14
aI14
aI14
aI14
aI14
aI14
aI14
aI14
aI14
asg9
(lp40
I171
aI171
aI171
aI171
aI171
aI171
aI171
aI171
aI171
aI171
aI171
aI171
aI171
aI171
aI171
aI171
aI171
aI171
aI171
aI171
assS'./Data/Dune.csv'
p41
(dp42
g3
(lp43
I0
aI0
aI0
aI0
aI0
aI0
aI0
aI0
aI0
aI0
aI0
aI0
aI0
aI0
aI0
aI0
aI0
aI0
aI0
aI0
asg5
(lp44
I0
aI0
aI0
aI0
aI0
aI0
aI0
aI0
aI0
aI0
aI0
aI0
aI0
aI0
aI0
aI0
aI0
aI0
aI0
aI0
asg7
(lp45
I14
aI14
aI14
aI14
aI14
aI14
aI14
aI14
aI14
aI14
aI14
aI14
aI14
aI14
aI14
aI14
aI14
aI14
aI14
aI14
asg9
(lp46
I920
aI920
aI920
aI920
aI920
aI920
aI920
aI920
aI920
aI920
aI920
aI920
aI920
aI920
aI920
aI920
aI920
aI920
aI920
aI920
assS'./Data/wc+sol-3d-c4-obj1.csv'
p47
(dp48
g3
(lp49
I0
aI0
aI0
aI0
aI0
aI0
aI0
aI0
aI0
aI0
aI0
aI0
aI0
aI0
aI0
aI0
aI0
aI0
aI0
aI0
asg5
(lp50
I0
aI0
aI0
aI0
aI0
aI0
aI0
aI0
aI0
aI0
aI0
aI0
aI0
aI0
aI0
aI0
aI0
aI0
aI0
aI0
asg7
(lp51
I14
aI14
aI14
aI14
aI14
aI14
aI14
aI14
aI14
aI14
aI14
aI14
aI14
aI14
aI14
aI14
aI14
aI14
aI14
aI14
asg9
(lp52
I77
aI77
aI77
aI77
aI77
aI77
aI77
aI77
aI77
aI77
aI77
aI77
aI77
aI77
aI77
aI77
aI77
aI77
aI77
aI77
assS'./Data/Apache_AllMeasurements.csv'
p53
(dp54
g3
(lp55
I0
aI0
aI0
aI0
aI0
aI0
aI0
aI0
aI0
aI0
aI0
aI0
aI0
aI0
aI0
aI0
aI0
aI0
aI0
aI0
asg5
(lp56
I0
aI0
aI0
aI0
aI0
aI0
aI0
aI0
aI0
aI0
aI0
aI0
aI0
aI0
aI0
aI0
aI0
aI0
aI0
aI0
asg7
(lp57
I14
aI14
aI14
aI14
aI14
aI14
aI14
aI14
aI14
aI14
aI14
aI14
aI14
aI14
aI14
aI14
aI14
aI14
aI14
aI14
asg9
(lp58
I75
aI75
aI75
aI75
aI75
aI75
aI75
aI75
aI75
aI75
aI75
aI75
aI75
aI75
aI75
aI75
aI75
aI75
aI75
aI75
assS'./Data/sort_256_obj2.csv'
p59
(dp60
g3
(lp61
I0
aI0
aI0
aI0
aI0
aI0
aI0
aI0
aI0
aI0
aI0
aI0
aI0
aI0
aI0
aI0
aI0
aI0
aI0
aI0
asg5
(lp62
I0
aI0
aI0
aI0
aI5
aI0
aI0
aI0
aI0
aI0
aI0
aI0
aI0
aI0
aI0
aI0
aI0
aI0
aI0
aI0
asg7
(lp63
I14
aI25
aI19
aI62
aI14
aI50
aI14
aI20
aI53
aI24
aI15
aI38
aI29
aI22
aI22
aI29
aI29
aI19
aI40
aI15
asg9
(lp64
I16
aI22
aI31
aI37
aI21
aI17
aI10
aI27
aI20
aI10
aI76
aI49
aI46
aI49
aI19
aI15
aI13
aI13
aI28
aI35
assS'./Data/BDBC_AllMeasurements.csv'
p65
(dp66
g3
(lp67
I1
aI0
aI0
aI0
aI0
aI0
aI0
aI0
aI0
aI0
aI0
aI0
aI0
aI10
aI0
aI28
aI0
aI0
aI0
aI12
asg5
(lp68
I0
aI0
aI0
aI0
aI3
aI0
aI0
aI0
aI0
aI0
aI0
aI52
aI3
aI0
aI0
aI0
aI0
aI0
aI0
aI2
asg7
(lp69
I39
aI69
aI25
aI18
aI44
aI53
aI31
aI48
aI75
aI76
aI38
aI49
aI69
aI40
aI56
aI17
aI19
aI67
aI36
aI85
asg9
(lp70
I57
aI34
aI71
aI51
aI31
aI26
aI36
aI30
aI49
aI51
aI65
aI27
aI31
aI37
aI54
aI36
aI79
aI38
aI55
aI52
assS'./Data/SQL_AllMeasurements.csv'
p71
(dp72
g3
(lp73
I40
aI0
aI115
aI4
aI1
aI60
aI2
aI0
aI26
aI5
aI0
aI18
aI105
aI4
aI0
aI3
aI7
aI21
aI3
aI4
asg5
(lp74
I8
aI0
aI10
aI16
aI4
aI2
aI4
aI11
aI1002
aI0
aI5
aI0
aI0
aI0
aI0
aI12
aI65
aI1
aI47
aI3
asg7
(lp75
I31
aI19
aI23
aI15
aI15
aI15
aI28
aI61
aI72
aI26
aI29
aI25
aI14
aI20
aI19
aI25
aI15
aI44
aI16
aI16
asg9
(lp76
I10
aI10
aI10
aI10
aI10
aI10
aI10
aI10
aI10
aI10
aI10
aI10
aI10
aI10
aI10
aI10
aI10
aI10
aI10
aI10
assS'./Data/rs-6d-c3_obj1.csv'
p77
(dp78
g3
(lp79
I0
aI0
aI0
aI0
aI0
aI0
aI0
aI0
aI0
aI0
aI0
aI0
aI0
aI0
aI0
aI0
aI0
aI0
aI0
aI0
asg5
(lp80
I0
aI0
aI0
aI0
aI0
aI0
aI0
aI0
aI0
aI0
aI0
aI0
aI0
aI0
aI0
aI0
aI0
aI0
aI0
aI0
asg7
(lp81
I24
aI14
aI14
aI14
aI16
aI14
aI14
aI14
aI14
aI14
aI14
aI14
aI14
aI21
aI16
aI14
aI14
aI14
aI15
aI14
asg9
(lp82
I1535
aI1535
aI1535
aI1535
aI1535
aI1535
aI1535
aI1535
aI1535
aI1535
aI1535
aI1535
aI1535
aI1535
aI1535
aI1535
aI1535
aI1535
aI1535
aI1535
assS'./Data/HSMGP_num.csv'
p83
(dp84
g3
(lp85
I0
aI0
aI0
aI0
aI0
aI75
aI0
aI226
aI0
aI0
aI0
aI0
aI0
aI0
aI0
aI0
aI0
aI0
aI0
aI0
asg5
(lp86
I0
aI0
aI0
aI0
aI0
aI0
aI0
aI0
aI0
aI0
aI0
aI0
aI0
aI0
aI0
aI0
aI0
aI0
aI0
aI0
asg7
(lp87
I14
aI31
aI45
aI29
aI36
aI16
aI50
aI18
aI31
aI14
aI21
aI57
aI48
aI17
aI17
aI18
aI34
aI16
aI29
aI17
asg9
(lp88
I1381
aI1381
aI1381
aI1381
aI1381
aI1381
aI1381
aI1381
aI1381
aI1381
aI1381
aI1381
aI1381
aI1381
aI1381
aI1381
aI1381
aI1381
aI1381
aI1381
ass.