(dp0
S'./Data/lrzip.csv'
p1
(dp2
S'rank_rd'
p3
(lp4
I0
aI0
aI0
aI0
aI0
aI0
aI0
aI0
aI0
aI0
aI0
aI0
aI0
aI0
aI0
aI0
aI0
aI0
aI0
aI0
asS'mmre_rd'
p5
(lp6
I0
aI0
aI0
aI0
aI0
aI0
aI0
aI0
aI0
aI0
aI0
aI0
aI0
aI0
aI0
aI0
aI0
aI0
aI0
aI0
asS'rank_eval'
p7
(lp8
I14
aI14
aI14
aI14
aI14
aI14
aI14
aI14
aI14
aI14
aI14
aI14
aI14
aI14
aI14
aI14
aI14
aI14
aI14
aI14
asS'mmre_eval'
p9
(lp10
I171
aI171
aI171
aI171
aI171
aI171
aI171
aI171
aI171
aI171
aI171
aI171
aI171
aI171
aI171
aI171
aI171
aI171
aI171
aI171
assS'./Data/Dune.csv'
p11
(dp12
g3
(lp13
I0
aI0
aI0
aI0
aI0
aI0
aI0
aI0
aI0
aI0
aI0
aI0
aI0
aI0
aI0
aI0
aI0
aI0
aI0
aI0
asg5
(lp14
I0
aI0
aI0
aI0
aI0
aI0
aI0
aI0
aI0
aI0
aI0
aI0
aI0
aI0
aI0
aI0
aI0
aI0
aI0
aI0
asg7
(lp15
I14
aI14
aI14
aI14
aI14
aI14
aI14
aI14
aI14
aI14
aI14
aI14
aI14
aI14
aI14
aI14
aI14
aI14
aI14
aI14
asg9
(lp16
I920
aI920
aI920
aI920
aI920
aI920
aI920
aI920
aI920
aI920
aI920
aI920
aI920
aI920
aI920
aI920
aI920
aI920
aI920
aI920
assS'./Data/Apache_AllMeasurements.csv'
p17
(dp18
g3
(lp19
I0
aI0
aI0
aI0
aI0
aI0
aI0
aI0
aI0
aI0
aI0
aI0
aI0
aI0
aI0
aI0
aI0
aI0
aI0
aI0
asg5
(lp20
I0
aI0
aI0
aI0
aI0
aI0
aI0
aI0
aI0
aI0
aI0
aI0
aI0
aI0
aI0
aI0
aI0
aI0
aI0
aI0
asg7
(lp21
I14
aI14
aI14
aI14
aI14
aI14
aI14
aI14
aI14
aI14
aI14
aI14
aI14
aI14
aI14
aI14
aI14
aI14
aI14
aI14
asg9
(lp22
I75
aI75
aI75
aI75
aI75
aI75
aI75
aI75
aI75
aI75
aI75
aI75
aI75
aI75
aI75
aI75
aI75
aI75
aI75
aI75
assS'./Data/BDBC_AllMeasurements.csv'
p23
(dp24
g3
(lp25
I1
aI0
aI0
aI0
aI0
aI0
aI0
aI0
aI0
aI0
aI0
aI0
aI0
aI10
aI0
aI28
aI0
aI0
aI0
aI12
asg5
(lp26
I0
aI0
aI0
aI0
aI3
aI0
aI0
aI0
aI0
aI0
aI0
aI52
aI3
aI0
aI0
aI0
aI0
aI0
aI0
aI2
asg7
(lp27
I39
aI69
aI25
aI18
aI44
aI53
aI31
aI48
aI75
aI76
aI38
aI49
aI69
aI40
aI56
aI17
aI19
aI67
aI36
aI85
asg9
(lp28
I57
aI34
aI71
aI51
aI31
aI26
aI36
aI30
aI49
aI51
aI65
aI27
aI31
aI37
aI54
aI36
aI79
aI38
aI55
aI52
assS'./Data/rs-6d-c3_obj1.csv'
p29
(dp30
g3
(lp31
I0
aI0
aI0
aI0
aI0
aI0
aI0
aI0
aI0
aI0
aI0
aI0
aI0
aI0
aI0
aI0
aI0
aI0
aI0
aI0
asg5
(lp32
I0
aI0
aI0
aI0
aI0
aI0
aI0
aI0
aI0
aI0
aI0
aI0
aI0
aI0
aI0
aI0
aI0
aI0
aI0
aI0
asg7
(lp33
I24
aI14
aI14
aI14
aI16
aI14
aI14
aI14
aI14
aI14
aI14
aI14
aI14
aI21
aI16
aI14
aI14
aI14
aI15
aI14
asg9
(lp34
I1535
aI1535
aI1535
aI1535
aI1535
aI1535
aI1535
aI1535
aI1535
aI1535
aI1535
aI1535
aI1535
aI1535
aI1535
aI1535
aI1535
aI1535
aI1535
aI1535
assS'./Data/HSMGP_num.csv'
p35
(dp36
g3
(lp37
I0
aI0
aI0
aI0
aI0
aI75
aI0
aI226
aI0
aI0
aI0
aI0
aI0
aI0
aI0
aI0
aI0
aI0
aI0
aI0
asg5
(lp38
I0
aI0
aI0
aI0
aI0
aI0
aI0
aI0
aI0
aI0
aI0
aI0
aI0
aI0
aI0
aI0
aI0
aI0
aI0
aI0
asg7
(lp39
I14
aI31
aI45
aI29
aI36
aI16
aI50
aI18
aI31
aI14
aI21
aI57
aI48
aI17
aI17
aI18
aI34
aI16
aI29
aI17
asg9
(lp40
I1381
aI1381
aI1381
aI1381
aI1381
aI1381
aI1381
aI1381
aI1381
aI1381
aI1381
aI1381
aI1381
aI1381
aI1381
aI1381
aI1381
aI1381
aI1381
aI1381
ass.