(dp0
S'./Data/rs-6d-c3_obj2.csv'
p1
(dp2
S'rank_rd'
p3
(lp4
I40
aI37
aI0
aI0
aI1
aI0
aI39
aI1
aI0
aI1
aI10
aI111
aI0
aI36
aI6
aI48
aI0
aI27
aI0
aI0
asS'mmre_rd'
p5
(lp6
I0
aI0
aI0
aI0
aI0
aI1
aI2
aI0
aI0
aI0
aI0
aI0
aI0
aI0
aI0
aI0
aI0
aI1
aI0
aI0
asS'rank_eval'
p7
(lp8
I35
aI50
aI34
aI42
aI39
aI14
aI65
aI21
aI38
aI15
aI32
aI27
aI31
aI16
aI73
aI22
aI20
aI25
aI120
aI36
asS'mmre_eval'
p9
(lp10
I1535
aI1535
aI1535
aI1535
aI1535
aI1535
aI1535
aI1535
aI1535
aI1535
aI1535
aI1535
aI1535
aI1535
aI1535
aI1535
aI1535
aI1535
aI1535
aI1535
assS'./Data/rs-6d-c3_obj1.csv'
p11
(dp12
g3
(lp13
I0
aI0
aI0
aI0
aI0
aI0
aI0
aI0
aI0
aI0
aI0
aI0
aI0
aI0
aI0
aI0
aI0
aI0
aI0
aI0
asg5
(lp14
I0
aI0
aI0
aI0
aI0
aI0
aI0
aI0
aI0
aI0
aI0
aI0
aI0
aI0
aI0
aI0
aI0
aI0
aI0
aI0
asg7
(lp15
I24
aI14
aI14
aI14
aI16
aI14
aI14
aI14
aI14
aI14
aI14
aI14
aI14
aI21
aI16
aI14
aI14
aI14
aI15
aI14
asg9
(lp16
I1535
aI1535
aI1535
aI1535
aI1535
aI1535
aI1535
aI1535
aI1535
aI1535
aI1535
aI1535
aI1535
aI1535
aI1535
aI1535
aI1535
aI1535
aI1535
aI1535
assS'./Data/wc-6d-c1-obj1.csv'
p17
(dp18
g3
(lp19
I2
aI1
aI676
aI1
aI0
aI1
aI0
aI2
aI0
aI3
aI0
aI1
aI0
aI0
aI3
aI1
aI6
aI0
aI0
aI0
asg5
(lp20
I0
aI0
aI1
aI1
aI4
aI0
aI0
aI0
aI0
aI3
aI0
aI0
aI0
aI0
aI0
aI0
aI6
aI0
aI0
aI0
asg7
(lp21
I14
aI15
aI14
aI15
aI14
aI14
aI28
aI14
aI14
aI34
aI14
aI14
aI14
aI14
aI17
aI20
aI14
aI14
aI14
aI14
asg9
(lp22
I1151
aI1151
aI1151
aI1151
aI1151
aI1151
aI1151
aI1151
aI1151
aI1151
aI1151
aI1151
aI1151
aI1151
aI1151
aI1151
aI1151
aI1151
aI1151
aI1151
assS'./Data/wc+rs-3d-c4-obj2.csv'
p23
(dp24
g3
(lp25
I0
aI0
aI5
aI0
aI0
aI0
aI0
aI0
aI0
aI0
aI0
aI0
aI0
aI0
aI0
aI0
aI0
aI0
aI0
aI0
asg5
(lp26
I0
aI0
aI0
aI0
aI0
aI0
aI0
aI0
aI0
aI0
aI1
aI0
aI0
aI0
aI0
aI0
aI0
aI0
aI0
aI0
asg7
(lp27
I15
aI14
aI15
aI14
aI14
aI15
aI18
aI23
aI23
aI19
aI34
aI18
aI19
aI15
aI15
aI20
aI22
aI22
aI31
aI28
asg9
(lp28
I77
aI77
aI77
aI77
aI77
aI77
aI77
aI77
aI77
aI77
aI77
aI77
aI77
aI77
aI77
aI77
aI77
aI77
aI77
aI77
assS'./Data/sol-6d-c2-obj2.csv'
p29
(dp30
g3
(lp31
I0
aI2
aI1
aI1
aI0
aI1
aI65
aI0
aI29
aI19
aI6
aI1
aI0
aI0
aI24
aI0
aI0
aI0
aI0
aI83
asg5
(lp32
I0
aI0
aI0
aI0
aI0
aI4
aI0
aI4
aI0
aI0
aI0
aI0
aI0
aI0
aI2
aI1
aI2
aI0
aI0
aI1
asg7
(lp33
I35
aI45
aI30
aI20
aI18
aI17
aI58
aI14
aI15
aI111
aI26
aI42
aI36
aI31
aI71
aI19
aI62
aI30
aI24
aI27
asg9
(lp34
I1143
aI1143
aI1143
aI1143
aI1143
aI1143
aI1143
aI1143
aI1143
aI1143
aI1143
aI1143
aI1143
aI1143
aI1143
aI1143
aI1143
aI1143
aI1143
aI1143
assS'./Data/lrzip.csv'
p35
(dp36
g3
(lp37
I0
aI0
aI0
aI0
aI0
aI0
aI0
aI0
aI0
aI0
aI0
aI0
aI0
aI0
aI0
aI0
aI0
aI0
aI0
aI0
asg5
(lp38
I0
aI0
aI0
aI0
aI0
aI0
aI0
aI0
aI0
aI0
aI0
aI0
aI0
aI0
aI0
aI0
aI0
aI0
aI0
aI0
asg7
(lp39
I14
aI14
aI14
aI14
aI14
aI14
aI14
aI14
aI14
aI14
aI14
aI14
aI14
aI14
aI14
aI14
aI14
aI14
aI14
aI14
asg9
(lp40
I171
aI171
aI171
aI171
aI171
aI171
aI171
aI171
aI171
aI171
aI171
aI171
aI171
aI171
aI171
aI171
aI171
aI171
aI171
aI171
assS'./Data/WGet.csv'
p41
(dp42
g3
(lp43
I0
aI0
aI0
aI0
aI0
aI0
aI0
aI0
aI0
aI0
aI0
aI0
aI0
aI0
aI0
aI0
aI0
aI0
aI0
aI0
asg5
(lp44
I0
aI0
aI0
aI0
aI0
aI0
aI0
aI0
aI0
aI0
aI0
aI0
aI0
aI0
aI0
aI0
aI0
aI0
aI0
aI0
asg7
(lp45
I14
aI14
aI14
aI14
aI14
aI14
aI14
aI14
aI14
aI14
aI14
aI14
aI14
aI14
aI14
aI14
aI14
aI14
aI14
aI14
asg9
(lp46
I74
aI74
aI74
aI74
aI74
aI74
aI74
aI74
aI74
aI74
aI74
aI74
aI74
aI74
aI74
aI74
aI74
aI74
aI74
aI74
assS'./Data/wc+wc-3d-c4-obj1.csv'
p47
(dp48
g3
(lp49
I0
aI0
aI0
aI0
aI0
aI0
aI0
aI0
aI0
aI0
aI0
aI0
aI0
aI0
aI0
aI0
aI0
aI0
aI0
aI0
asg5
(lp50
I0
aI0
aI0
aI0
aI0
aI0
aI0
aI0
aI0
aI0
aI0
aI0
aI0
aI0
aI0
aI0
aI0
aI0
aI0
aI0
asg7
(lp51
I14
aI14
aI14
aI14
aI14
aI14
aI14
aI14
aI14
aI14
aI14
aI14
aI14
aI14
aI14
aI14
aI14
aI14
aI14
aI14
asg9
(lp52
I77
aI77
aI77
aI77
aI77
aI77
aI77
aI77
aI77
aI77
aI77
aI77
aI77
aI77
aI77
aI77
aI77
aI77
aI77
aI77
assS'./Data/Apache_AllMeasurements.csv'
p53
(dp54
g3
(lp55
I0
aI0
aI0
aI0
aI0
aI0
aI0
aI0
aI0
aI0
aI0
aI0
aI0
aI0
aI0
aI0
aI0
aI0
aI0
aI0
asg5
(lp56
I0
aI0
aI0
aI0
aI0
aI0
aI0
aI0
aI0
aI0
aI0
aI0
aI0
aI0
aI0
aI0
aI0
aI0
aI0
aI0
asg7
(lp57
I14
aI14
aI14
aI14
aI14
aI14
aI14
aI14
aI14
aI14
aI14
aI14
aI14
aI14
aI14
aI14
aI14
aI14
aI14
aI14
asg9
(lp58
I75
aI75
aI75
aI75
aI75
aI75
aI75
aI75
aI75
aI75
aI75
aI75
aI75
aI75
aI75
aI75
aI75
aI75
aI75
aI75
assS'./Data/sort_256_obj2.csv'
p59
(dp60
g3
(lp61
I0
aI0
aI0
aI0
aI0
aI0
aI0
aI0
aI0
aI0
aI0
aI0
aI0
aI0
aI0
aI0
aI0
aI0
aI0
aI0
asg5
(lp62
I0
aI0
aI0
aI0
aI5
aI0
aI0
aI0
aI0
aI0
aI0
aI0
aI0
aI0
aI0
aI0
aI0
aI0
aI0
aI0
asg7
(lp63
I14
aI25
aI19
aI62
aI14
aI50
aI14
aI20
aI53
aI24
aI15
aI38
aI29
aI22
aI22
aI29
aI29
aI19
aI40
aI15
asg9
(lp64
I16
aI22
aI31
aI37
aI21
aI17
aI10
aI27
aI20
aI10
aI76
aI49
aI46
aI49
aI19
aI15
aI13
aI13
aI28
aI35
assS'./Data/BDBC_AllMeasurements.csv'
p65
(dp66
g3
(lp67
I1
aI0
aI0
aI0
aI0
aI0
aI0
aI0
aI0
aI0
aI0
aI0
aI0
aI10
aI0
aI28
aI0
aI0
aI0
aI12
asg5
(lp68
I0
aI0
aI0
aI0
aI3
aI0
aI0
aI0
aI0
aI0
aI0
aI52
aI3
aI0
aI0
aI0
aI0
aI0
aI0
aI2
asg7
(lp69
I39
aI69
aI25
aI18
aI44
aI53
aI31
aI48
aI75
aI76
aI38
aI49
aI69
aI40
aI56
aI17
aI19
aI67
aI36
aI85
asg9
(lp70
I57
aI34
aI71
aI51
aI31
aI26
aI36
aI30
aI49
aI51
aI65
aI27
aI31
aI37
aI54
aI36
aI79
aI38
aI55
aI52
assS'./Data/wc+sol-3d-c4-obj2.csv'
p71
(dp72
g3
(lp73
I0
aI0
aI0
aI0
aI0
aI0
aI0
aI0
aI4
aI0
aI0
aI0
aI0
aI0
aI0
aI0
aI0
aI0
aI0
aI0
asg5
(lp74
I0
aI0
aI0
aI0
aI0
aI0
aI0
aI0
aI0
aI0
aI0
aI0
aI0
aI0
aI0
aI0
aI0
aI0
aI0
aI0
asg7
(lp75
I17
aI15
aI14
aI16
aI20
aI17
aI14
aI17
aI16
aI29
aI14
aI19
aI15
aI22
aI16
aI27
aI15
aI18
aI16
aI15
asg9
(lp76
I77
aI77
aI77
aI77
aI77
aI77
aI77
aI77
aI77
aI77
aI77
aI77
aI77
aI77
aI77
aI77
aI77
aI77
aI77
aI77
assS'./Data/sol-6d-c2-obj1.csv'
p77
(dp78
g3
(lp79
I16
aI1
aI19
aI19
aI10
aI0
aI0
aI9
aI5
aI0
aI0
aI0
aI17
aI0
aI0
aI0
aI0
aI19
aI7
aI2
asg5
(lp80
I0
aI2
aI6
aI8
aI0
aI12
aI1
aI5
aI2
aI2
aI0
aI1
aI13
aI0
aI3
aI2
aI0
aI0
aI4
aI6
asg7
(lp81
I14
aI14
aI14
aI14
aI14
aI19
aI16
aI14
aI18
aI22
aI14
aI14
aI14
aI15
aI14
aI14
aI20
aI21
aI23
aI41
asg9
(lp82
I1145
aI1145
aI1145
aI1145
aI1145
aI1145
aI1145
aI1145
aI1145
aI1145
aI1145
aI1145
aI1145
aI1145
aI1145
aI1145
aI1145
aI1145
aI1145
aI1145
assS'./Data/X264_AllMeasurements.csv'
p83
(dp84
g3
(lp85
I0
aI0
aI0
aI0
aI0
aI0
aI0
aI0
aI0
aI0
aI0
aI0
aI2
aI0
aI0
aI0
aI0
aI0
aI0
aI0
asg5
(lp86
I0
aI0
aI0
aI0
aI0
aI0
aI0
aI0
aI0
aI0
aI0
aI0
aI0
aI0
aI0
aI0
aI0
aI0
aI0
aI0
asg7
(lp87
I14
aI20
aI15
aI14
aI14
aI14
aI17
aI16
aI16
aI15
aI14
aI23
aI17
aI14
aI23
aI14
aI17
aI15
aI14
aI15
asg9
(lp88
I13
aI13
aI10
aI14
aI22
aI17
aI12
aI10
aI10
aI11
aI12
aI24
aI24
aI13
aI85
aI14
aI14
aI17
aI28
aI10
assS'./Data/wc+rs-3d-c4-obj1.csv'
p89
(dp90
g3
(lp91
I0
aI0
aI0
aI0
aI0
aI0
aI0
aI0
aI0
aI0
aI0
aI0
aI0
aI0
aI0
aI0
aI0
aI0
aI0
aI0
asg5
(lp92
I0
aI0
aI0
aI0
aI0
aI0
aI0
aI0
aI0
aI0
aI0
aI0
aI0
aI0
aI0
aI0
aI0
aI0
aI0
aI0
asg7
(lp93
I14
aI14
aI14
aI14
aI14
aI14
aI14
aI14
aI14
aI14
aI14
aI14
aI14
aI14
aI14
aI14
aI14
aI14
aI14
aI14
asg9
(lp94
I77
aI77
aI77
aI77
aI77
aI77
aI77
aI77
aI77
aI77
aI77
aI77
aI77
aI77
aI77
aI77
aI77
aI77
aI77
aI77
assS'./Data/SQL_AllMeasurements.csv'
p95
(dp96
g3
(lp97
I40
aI0
aI115
aI4
aI1
aI60
aI2
aI0
aI26
aI5
aI0
aI18
aI105
aI4
aI0
aI3
aI7
aI21
aI3
aI4
asg5
(lp98
I8
aI0
aI10
aI16
aI4
aI2
aI4
aI11
aI1002
aI0
aI5
aI0
aI0
aI0
aI0
aI12
aI65
aI1
aI47
aI3
asg7
(lp99
I31
aI19
aI23
aI15
aI15
aI15
aI28
aI61
aI72
aI26
aI29
aI25
aI14
aI20
aI19
aI25
aI15
aI44
aI16
aI16
asg9
(lp100
I10
aI10
aI10
aI10
aI10
aI10
aI10
aI10
aI10
aI10
aI10
aI10
aI10
aI10
aI10
aI10
aI10
aI10
aI10
aI10
assS'./Data/wc+sol-3d-c4-obj1.csv'
p101
(dp102
g3
(lp103
I0
aI0
aI0
aI0
aI0
aI0
aI0
aI0
aI0
aI0
aI0
aI0
aI0
aI0
aI0
aI0
aI0
aI0
aI0
aI0
asg5
(lp104
I0
aI0
aI0
aI0
aI0
aI0
aI0
aI0
aI0
aI0
aI0
aI0
aI0
aI0
aI0
aI0
aI0
aI0
aI0
aI0
asg7
(lp105
I14
aI14
aI14
aI14
aI14
aI14
aI14
aI14
aI14
aI14
aI14
aI14
aI14
aI14
aI14
aI14
aI14
aI14
aI14
aI14
asg9
(lp106
I77
aI77
aI77
aI77
aI77
aI77
aI77
aI77
aI77
aI77
aI77
aI77
aI77
aI77
aI77
aI77
aI77
aI77
aI77
aI77
assS'./Data/wc-6d-c1-obj2.csv'
p107
(dp108
g3
(lp109
I0
aI0
aI0
aI1
aI6
aI1
aI0
aI0
aI0
aI0
aI0
aI124
aI3
aI0
aI0
aI0
aI0
aI0
aI0
aI0
asg5
(lp110
I0
aI0
aI0
aI0
aI0
aI0
aI0
aI0
aI0
aI0
aI0
aI0
aI0
aI0
aI0
aI0
aI0
aI0
aI0
aI0
asg7
(lp111
I40
aI46
aI63
aI31
aI18
aI22
aI38
aI83
aI21
aI44
aI18
aI27
aI16
aI34
aI29
aI30
aI75
aI36
aI44
aI39
asg9
(lp112
I1151
aI1151
aI1151
aI1151
aI1151
aI1151
aI1151
aI1151
aI1151
aI1151
aI1151
aI1151
aI1151
aI1151
aI1151
aI1151
aI1151
aI1151
aI1151
aI1151
assS'./Data/HSMGP_num.csv'
p113
(dp114
g3
(lp115
I0
aI0
aI0
aI0
aI0
aI75
aI0
aI226
aI0
aI0
aI0
aI0
aI0
aI0
aI0
aI0
aI0
aI0
aI0
aI0
asg5
(lp116
I0
aI0
aI0
aI0
aI0
aI0
aI0
aI0
aI0
aI0
aI0
aI0
aI0
aI0
aI0
aI0
aI0
aI0
aI0
aI0
asg7
(lp117
I14
aI31
aI45
aI29
aI36
aI16
aI50
aI18
aI31
aI14
aI21
aI57
aI48
aI17
aI17
aI18
aI34
aI16
aI29
aI17
asg9
(lp118
I1381
aI1381
aI1381
aI1381
aI1381
aI1381
aI1381
aI1381
aI1381
aI1381
aI1381
aI1381
aI1381
aI1381
aI1381
aI1381
aI1381
aI1381
aI1381
aI1381
assS'./Data/wc-3d-c4_obj2.csv'
p119
(dp120
g3
(lp121
I0
aI0
aI0
aI0
aI0
aI0
aI0
aI17
aI0
aI0
aI0
aI0
aI0
aI0
aI0
aI0
aI0
aI0
aI30
aI0
asg5
(lp122
I0
aI0
aI0
aI0
aI0
aI0
aI0
aI1
aI0
aI0
aI0
aI0
aI0
aI0
aI0
aI0
aI0
aI0
aI0
aI0
asg7
(lp123
I24
aI16
aI28
aI18
aI17
aI23
aI45
aI32
aI15
aI14
aI38
aI17
aI40
aI18
aI14
aI14
aI38
aI16
aI36
aI34
asg9
(lp124
I301
aI301
aI301
aI301
aI301
aI301
aI301
aI301
aI301
aI301
aI301
aI301
aI301
aI301
aI301
aI301
aI301
aI301
aI301
aI301
assS'./Data/Dune.csv'
p125
(dp126
g3
(lp127
I0
aI0
aI0
aI0
aI0
aI0
aI0
aI0
aI0
aI0
aI0
aI0
aI0
aI0
aI0
aI0
aI0
aI0
aI0
aI0
asg5
(lp128
I0
aI0
aI0
aI0
aI0
aI0
aI0
aI0
aI0
aI0
aI0
aI0
aI0
aI0
aI0
aI0
aI0
aI0
aI0
aI0
asg7
(lp129
I14
aI14
aI14
aI14
aI14
aI14
aI14
aI14
aI14
aI14
aI14
aI14
aI14
aI14
aI14
aI14
aI14
aI14
aI14
aI14
asg9
(lp130
I920
aI920
aI920
aI920
aI920
aI920
aI920
aI920
aI920
aI920
aI920
aI920
aI920
aI920
aI920
aI920
aI920
aI920
aI920
aI920
assS'./Data/wc+wc-3d-c4-obj2.csv'
p131
(dp132
g3
(lp133
I0
aI0
aI0
aI0
aI0
aI0
aI0
aI0
aI0
aI0
aI0
aI0
aI0
aI0
aI0
aI0
aI0
aI0
aI0
aI0
asg5
(lp134
I0
aI0
aI0
aI0
aI0
aI0
aI0
aI0
aI0
aI0
aI0
aI0
aI0
aI0
aI0
aI0
aI0
aI0
aI0
aI0
asg7
(lp135
I15
aI19
aI14
aI15
aI16
aI34
aI35
aI30
aI15
aI20
aI18
aI43
aI14
aI32
aI15
aI17
aI15
aI14
aI14
aI14
asg9
(lp136
I77
aI77
aI77
aI77
aI77
aI77
aI77
aI77
aI77
aI77
aI77
aI77
aI77
aI77
aI77
aI77
aI77
aI77
aI77
aI77
ass.