(dp0
S'BDBC_AllMeasurements'
p1
(dp2
S'atri_train_set'
p3
(lp4
I203
aI203
aI203
aI203
aI203
aI203
aI203
aI203
aI203
aI203
aI203
aI203
aI203
aI203
aI203
aI203
aI203
aI203
aI203
aI203
asS'rank_min_rank'
p5
(lp6
F0.0
aF0.0
aF1.0
aF48.0
aF0.0
aF1.0
aF1.0
aF0.0
aF6.0
aF3.0
aF0.0
aF0.0
aF52.0
aF0.0
aF5.0
aF4.0
aF46.0
aF7.0
aF0.0
aF0.0
asS'rank_train_set'
p7
(lp8
F36.0
aF57.0
aF39.0
aF33.0
aF26.0
aF66.0
aF43.0
aF15.0
aF34.0
aF87.0
aF22.0
aF22.0
aF25.0
aF50.0
aF147.0
aF28.0
aF14.0
aF62.0
aF20.0
aF86.0
asS'atri_min_rank'
p9
(lp10
I0
aI1
aI0
aI0
aI1
aI1
aI0
aI2
aI0
aI0
aI0
aI1
aI7
aI0
aI0
aI0
aI0
aI0
aI0
aI1
asS'mmre_min_rank'
p11
(lp12
F0.0
aF2.0
aF2.0
aF46.0
aF1.0
aF1.0
aF26.0
aF0.0
aF6.0
aF1.0
aF0.0
aF0.0
aF17.0
aF11.0
aF1.0
aF24.0
aF25.0
aF0.0
aF14.0
aF19.0
asS'mmre_train_set'
p13
(lp14
F58.0
aF36.0
aF51.0
aF33.0
aF43.0
aF47.0
aF44.0
aF49.0
aF53.0
aF45.0
aF40.0
aF42.0
aF42.0
aF47.0
aF35.0
aF55.0
aF51.0
aF48.0
aF37.0
aF42.0
assS'X264_AllMeasurements'
p15
(dp16
g3
(lp17
I159
aI159
aI159
aI159
aI159
aI159
aI159
aI159
aI159
aI159
aI159
aI159
aI159
aI159
aI159
aI159
aI159
aI159
aI159
aI159
asg5
(lp18
F0.0
aF1.0
aF0.0
aF8.0
aF1.0
aF0.0
aF2.0
aF5.0
aF4.0
aF2.0
aF10.0
aF0.0
aF1.0
aF0.0
aF3.0
aF15.0
aF0.0
aF0.0
aF18.0
aF9.0
asg7
(lp19
F76.0
aF25.0
aF30.0
aF52.0
aF15.0
aF55.0
aF34.0
aF45.0
aF15.0
aF27.0
aF23.0
aF69.0
aF15.0
aF80.0
aF26.0
aF19.0
aF24.0
aF89.0
aF20.0
aF29.0
asg9
(lp20
I0
aI0
aI0
aI0
aI0
aI0
aI0
aI0
aI0
aI0
aI0
aI0
aI0
aI0
aI4
aI0
aI0
aI0
aI0
aI0
asg11
(lp21
F0.0
aF1.0
aF0.0
aF0.0
aF5.0
aF0.0
aF0.0
aF0.0
aF4.0
aF0.0
aF0.0
aF1.0
aF0.0
aF0.0
aF0.0
aF4.0
aF4.0
aF0.0
aF0.0
aF0.0
asg13
(lp22
F13.0
aF23.0
aF10.0
aF10.0
aF10.0
aF16.0
aF11.0
aF10.0
aF16.0
aF10.0
aF12.0
aF15.0
aF15.0
aF15.0
aF10.0
aF10.0
aF14.0
aF17.0
aF12.0
aF15.0
assS'lrzip'
p23
(dp24
g3
(lp25
I168
aI168
aI168
aI168
aI168
aI168
aI168
aI168
aI168
aI168
aI168
aI168
aI168
aI168
aI168
aI168
aI168
aI168
aI168
aI168
asg5
(lp26
F0.0
aF0.0
aF0.0
aF0.0
aF0.0
aF9.0
aF0.0
aF0.0
aF26.0
aF0.0
aF0.0
aF0.0
aF0.0
aF0.0
aF0.0
aF0.0
aF0.0
aF0.0
aF0.0
aF0.0
asg7
(lp27
F23.0
aF73.0
aF15.0
aF26.0
aF22.0
aF14.0
aF34.0
aF30.0
aF14.0
aF38.0
aF48.0
aF34.0
aF24.0
aF15.0
aF32.0
aF25.0
aF17.0
aF35.0
aF14.0
aF37.0
asg9
(lp28
I0
aI0
aI0
aI0
aI0
aI0
aI0
aI0
aI0
aI0
aI0
aI0
aI1
aI0
aI0
aI0
aI0
aI0
aI0
aI0
asg11
(lp29
F0.0
aF0.0
aF0.0
aF0.0
aF0.0
aF0.0
aF1.0
aF0.0
aF0.0
aF1.0
aF0.0
aF0.0
aF0.0
aF0.0
aF0.0
aF0.0
aF0.0
aF0.0
aF0.0
aF0.0
asg13
(lp30
F59.0
aF80.0
aF126.0
aF36.0
aF56.0
aF122.0
aF100.0
aF98.0
aF58.0
aF117.0
aF127.0
aF75.0
aF66.0
aF103.0
aF93.0
aF67.0
aF91.0
aF99.0
aF87.0
aF67.0
assS'WGet'
p31
(dp32
g3
(lp33
I18
aI18
aI18
aI18
aI18
aI18
aI18
aI18
aI18
aI18
aI18
aI18
aI18
aI18
aI18
aI18
aI18
aI18
aI18
aI18
asg5
(lp34
F0.0
aF2.0
aF5.0
aF1.0
aF2.0
aF0.0
aF7.0
aF3.0
aF2.0
aF17.0
aF2.0
aF0.0
aF0.0
aF0.0
aF0.0
aF0.0
aF4.0
aF4.0
aF6.0
aF0.0
asg7
(lp35
F28.0
aF24.0
aF74.0
aF15.0
aF19.0
aF17.0
aF17.0
aF14.0
aF74.0
aF43.0
aF28.0
aF42.0
aF14.0
aF30.0
aF41.0
aF41.0
aF45.0
aF28.0
aF23.0
aF21.0
asg9
(lp36
I2
aI0
aI0
aI1
aI0
aI1
aI0
aI3
aI1
aI1
aI5
aI6
aI0
aI9
aI0
aI1
aI1
aI6
aI0
aI4
asg11
(lp37
F0.0
aF3.0
aF0.0
aF1.0
aF4.0
aF3.0
aF0.0
aF1.0
aF4.0
aF3.0
aF16.0
aF0.0
aF0.0
aF3.0
aF0.0
aF0.0
aF1.0
aF3.0
aF7.0
aF0.0
asg13
(lp38
F52.0
aF13.0
aF13.0
aF15.0
aF12.0
aF10.0
aF47.0
aF10.0
aF10.0
aF13.0
aF10.0
aF11.0
aF15.0
aF17.0
aF14.0
aF43.0
aF74.0
aF22.0
aF11.0
aF21.0
assS'SQL_AllMeasurements'
p39
(dp40
g3
(lp41
I48
aI48
aI48
aI48
aI48
aI48
aI48
aI48
aI48
aI48
aI48
aI48
aI48
aI48
aI48
aI48
aI48
aI48
aI48
aI48
asg5
(lp42
F3.0
aF31.0
aF463.0
aF0.0
aF52.0
aF29.0
aF1.0
aF151.0
aF1.0
aF1.0
aF43.0
aF16.0
aF19.0
aF492.0
aF22.0
aF0.0
aF19.0
aF21.0
aF17.0
aF39.0
asg7
(lp43
F22.0
aF54.0
aF42.0
aF51.0
aF27.0
aF19.0
aF20.0
aF40.0
aF33.0
aF20.0
aF57.0
aF15.0
aF41.0
aF21.0
aF22.0
aF43.0
aF27.0
aF14.0
aF36.0
aF71.0
asg9
(lp44
I4
aI140
aI8
aI14
aI1
aI0
aI55
aI217
aI15
aI219
aI0
aI47
aI0
aI15
aI14
aI29
aI668
aI172
aI1
aI0
asg11
(lp45
F10.0
aF1.0
aF28.0
aF0.0
aF3.0
aF48.0
aF39.0
aF1.0
aF0.0
aF1.0
aF11.0
aF8.0
aF1.0
aF6.0
aF19.0
aF18.0
aF11.0
aF11.0
aF2.0
aF18.0
asg13
(lp46
F10.0
aF10.0
aF10.0
aF10.0
aF10.0
aF10.0
aF10.0
aF10.0
aF10.0
aF10.0
aF10.0
aF10.0
aF10.0
aF10.0
aF10.0
aF10.0
aF10.0
aF10.0
aF10.0
aF10.0
assS'wc-3d-c4_obj2'
p47
(dp48
g3
(lp49
I84
aI84
aI84
aI84
aI84
aI84
aI84
aI84
aI84
aI84
aI84
aI84
aI84
aI84
aI84
aI84
aI84
aI84
aI84
aI84
asg5
(lp50
F0.0
aF1.0
aF0.0
aF0.0
aF0.0
aF0.0
aF1.0
aF0.0
aF1.0
aF0.0
aF0.0
aF0.0
aF0.0
aF0.0
aF0.0
aF0.0
aF0.0
aF0.0
aF0.0
aF0.0
asg7
(lp51
F33.0
aF29.0
aF32.0
aF85.0
aF18.0
aF17.0
aF25.0
aF67.0
aF27.0
aF92.0
aF24.0
aF21.0
aF28.0
aF45.0
aF19.0
aF50.0
aF30.0
aF36.0
aF18.0
aF14.0
asg9
(lp52
I0
aI0
aI0
aI0
aI1
aI0
aI0
aI0
aI3
aI0
aI0
aI0
aI0
aI0
aI0
aI0
aI0
aI0
aI2
aI0
asg11
(lp53
F0.0
aF1.0
aF1.0
aF0.0
aF0.0
aF0.0
aF1.0
aF1.0
aF0.0
aF0.0
aF1.0
aF0.0
aF1.0
aF0.0
aF1.0
aF0.0
aF0.0
aF1.0
aF0.0
aF0.0
asg13
(lp54
F301.0
aF301.0
aF301.0
aF301.0
aF301.0
aF301.0
aF301.0
aF117.0
aF185.0
aF301.0
aF301.0
aF301.0
aF301.0
aF301.0
aF301.0
aF301.0
aF301.0
aF301.0
aF301.0
aF301.0
assS'HSMGP_num'
p55
(dp56
g3
(lp57
I402
aI402
aI402
aI402
aI402
aI402
aI402
aI402
aI402
aI402
aI402
aI402
aI402
aI402
aI402
aI402
aI402
aI402
aI402
aI402
asg5
(lp58
F1.0
aF43.0
aF0.0
aF2.0
aF0.0
aF0.0
aF0.0
aF1.0
aF0.0
aF5.0
aF0.0
aF2.0
aF4.0
aF29.0
aF1.0
aF16.0
aF0.0
aF3.0
aF0.0
aF0.0
asg7
(lp59
F25.0
aF81.0
aF14.0
aF32.0
aF40.0
aF63.0
aF67.0
aF52.0
aF47.0
aF58.0
aF14.0
aF18.0
aF83.0
aF15.0
aF17.0
aF15.0
aF39.0
aF18.0
aF26.0
aF17.0
asg9
(lp60
I0
aI0
aI0
aI0
aI1
aI2
aI1
aI0
aI1
aI0
aI1
aI0
aI0
aI0
aI1
aI2
aI3
aI1
aI0
aI0
asg11
(lp61
F2.0
aF0.0
aF0.0
aF9.0
aF0.0
aF2.0
aF1.0
aF0.0
aF0.0
aF0.0
aF2.0
aF0.0
aF2.0
aF2.0
aF2.0
aF0.0
aF0.0
aF0.0
aF1.0
aF6.0
asg13
(lp62
F427.0
aF433.0
aF441.0
aF463.0
aF592.0
aF522.0
aF457.0
aF546.0
aF529.0
aF405.0
aF491.0
aF420.0
aF488.0
aF485.0
aF413.0
aF423.0
aF490.0
aF401.0
aF441.0
aF394.0
assS'Dune'
p63
(dp64
g3
(lp65
I132
aI132
aI132
aI132
aI132
aI132
aI132
aI132
aI132
aI132
aI132
aI132
aI132
aI132
aI132
aI132
aI132
aI132
aI132
aI132
asg5
(lp66
F4.0
aF0.0
aF1.0
aF12.0
aF6.0
aF50.0
aF90.0
aF1.0
aF0.0
aF4.0
aF7.0
aF14.0
aF3.0
aF1.0
aF0.0
aF29.0
aF0.0
aF2.0
aF57.0
aF1.0
asg7
(lp67
F34.0
aF54.0
aF22.0
aF17.0
aF28.0
aF42.0
aF41.0
aF43.0
aF37.0
aF78.0
aF25.0
aF64.0
aF87.0
aF19.0
aF67.0
aF23.0
aF36.0
aF15.0
aF30.0
aF44.0
asg9
(lp68
I2
aI1
aI12
aI1
aI40
aI30
aI0
aI1
aI6
aI2
aI1
aI1
aI6
aI10
aI1
aI2
aI0
aI17
aI0
aI2
asg11
(lp69
F2.0
aF1.0
aF1.0
aF1.0
aF0.0
aF2.0
aF0.0
aF1.0
aF0.0
aF2.0
aF3.0
aF0.0
aF4.0
aF0.0
aF9.0
aF0.0
aF1.0
aF2.0
aF40.0
aF1.0
asg13
(lp70
F91.0
aF87.0
aF65.0
aF147.0
aF93.0
aF182.0
aF116.0
aF44.0
aF142.0
aF117.0
aF95.0
aF39.0
aF95.0
aF154.0
aF126.0
aF123.0
aF104.0
aF173.0
aF124.0
aF79.0
assS'wc+wc-3d-c4-obj1'
p71
(dp72
g3
(lp73
I74
aI74
aI74
aI74
aI74
aI74
aI74
aI74
aI74
aI74
aI74
aI74
aI74
aI74
aI74
aI74
aI74
aI74
aI74
aI74
asg5
(lp74
F0.0
aF0.0
aF0.0
aF0.0
aF0.0
aF0.0
aF0.0
aF5.0
aF8.0
aF0.0
aF0.0
aF0.0
aF0.0
aF0.0
aF0.0
aF0.0
aF1.0
aF11.0
aF0.0
aF1.0
asg7
(lp75
F71.0
aF17.0
aF14.0
aF25.0
aF29.0
aF21.0
aF56.0
aF15.0
aF23.0
aF35.0
aF20.0
aF25.0
aF16.0
aF39.0
aF20.0
aF41.0
aF23.0
aF20.0
aF18.0
aF16.0
asg9
(lp76
I0
aI0
aI0
aI0
aI0
aI0
aI0
aI0
aI0
aI0
aI0
aI0
aI0
aI0
aI0
aI0
aI0
aI0
aI0
aI0
asg11
(lp77
F0.0
aF0.0
aF0.0
aF0.0
aF0.0
aF0.0
aF0.0
aF0.0
aF0.0
aF0.0
aF0.0
aF0.0
aF0.0
aF0.0
aF0.0
aF0.0
aF0.0
aF0.0
aF0.0
aF0.0
asg13
(lp78
F77.0
aF77.0
aF55.0
aF77.0
aF77.0
aF77.0
aF42.0
aF49.0
aF77.0
aF77.0
aF77.0
aF65.0
aF53.0
aF77.0
aF77.0
aF77.0
aF77.0
aF77.0
aF77.0
aF63.0
assS'wc+wc-3d-c4-obj2'
p79
(dp80
g3
(lp81
I34
aI34
aI34
aI34
aI34
aI34
aI34
aI34
aI34
aI34
aI34
aI34
aI34
aI34
aI34
aI34
aI34
aI34
aI34
aI34
asg5
(lp82
F0.0
aF0.0
aF0.0
aF0.0
aF0.0
aF0.0
aF0.0
aF0.0
aF0.0
aF0.0
aF0.0
aF0.0
aF0.0
aF0.0
aF0.0
aF0.0
aF1.0
aF0.0
aF0.0
aF0.0
asg7
(lp83
F58.0
aF22.0
aF34.0
aF17.0
aF21.0
aF21.0
aF32.0
aF41.0
aF23.0
aF17.0
aF39.0
aF40.0
aF27.0
aF16.0
aF15.0
aF18.0
aF15.0
aF19.0
aF17.0
aF21.0
asg9
(lp84
I0
aI0
aI0
aI1
aI0
aI0
aI0
aI0
aI6
aI0
aI0
aI0
aI0
aI0
aI0
aI0
aI0
aI0
aI0
aI0
asg11
(lp85
F0.0
aF0.0
aF0.0
aF0.0
aF0.0
aF0.0
aF0.0
aF0.0
aF0.0
aF0.0
aF0.0
aF0.0
aF0.0
aF0.0
aF0.0
aF0.0
aF0.0
aF0.0
aF0.0
aF0.0
asg13
(lp86
F77.0
aF77.0
aF77.0
aF77.0
aF77.0
aF77.0
aF77.0
aF77.0
aF77.0
aF77.0
aF77.0
aF77.0
aF77.0
aF77.0
aF77.0
aF77.0
aF77.0
aF77.0
aF77.0
aF77.0
assS'wc-6d-c1-obj2'
p87
(dp88
g3
(lp89
I124
aI124
aI124
aI124
aI124
aI124
aI124
aI124
aI124
aI124
aI124
aI124
aI124
aI124
aI124
aI124
aI124
aI124
aI124
aI124
asg5
(lp90
F0.0
aF0.0
aF29.0
aF0.0
aF2.0
aF0.0
aF2.0
aF3.0
aF40.0
aF0.0
aF0.0
aF1.0
aF3.0
aF0.0
aF3.0
aF0.0
aF11.0
aF1.0
aF8.0
aF0.0
asg7
(lp91
F20.0
aF15.0
aF57.0
aF63.0
aF16.0
aF31.0
aF39.0
aF31.0
aF43.0
aF63.0
aF33.0
aF50.0
aF111.0
aF71.0
aF77.0
aF56.0
aF39.0
aF59.0
aF64.0
aF33.0
asg9
(lp92
I0
aI1
aI1
aI6
aI0
aI1
aI5
aI20
aI0
aI0
aI1
aI0
aI0
aI26
aI0
aI0
aI2
aI0
aI1
aI1
asg11
(lp93
F0.0
aF0.0
aF6.0
aF5.0
aF0.0
aF0.0
aF0.0
aF0.0
aF2.0
aF0.0
aF1.0
aF0.0
aF1.0
aF0.0
aF0.0
aF0.0
aF0.0
aF0.0
aF0.0
aF0.0
asg13
(lp94
F264.0
aF329.0
aF529.0
aF395.0
aF315.0
aF279.0
aF476.0
aF326.0
aF429.0
aF323.0
aF214.0
aF401.0
aF326.0
aF431.0
aF351.0
aF337.0
aF552.0
aF443.0
aF357.0
aF285.0
assS'wc-6d-c1-obj1'
p95
(dp96
g3
(lp97
I706
aI706
aI706
aI706
aI706
aI706
aI706
aI706
aI706
aI706
aI706
aI706
aI706
aI706
aI706
aI706
aI706
aI706
aI706
aI706
asg5
(lp98
F2.0
aF3.0
aF0.0
aF0.0
aF0.0
aF1.0
aF2.0
aF34.0
aF147.0
aF2.0
aF2.0
aF0.0
aF6.0
aF3.0
aF5.0
aF3.0
aF0.0
aF3.0
aF0.0
aF25.0
asg7
(lp99
F16.0
aF48.0
aF28.0
aF59.0
aF26.0
aF30.0
aF21.0
aF54.0
aF19.0
aF31.0
aF34.0
aF17.0
aF17.0
aF36.0
aF79.0
aF17.0
aF50.0
aF40.0
aF54.0
aF40.0
asg9
(lp100
I2
aI0
aI0
aI0
aI0
aI0
aI1
aI0
aI1
aI0
aI3
aI0
aI0
aI0
aI0
aI1
aI2
aI1
aI0
aI1
asg11
(lp101
F1.0
aF0.0
aF0.0
aF1.0
aF0.0
aF0.0
aF4.0
aF3.0
aF0.0
aF0.0
aF0.0
aF0.0
aF1.0
aF0.0
aF2.0
aF0.0
aF2.0
aF0.0
aF1.0
aF1.0
asg13
(lp102
F248.0
aF450.0
aF399.0
aF364.0
aF388.0
aF327.0
aF426.0
aF440.0
aF374.0
aF381.0
aF301.0
aF420.0
aF415.0
aF363.0
aF514.0
aF477.0
aF613.0
aF330.0
aF581.0
aF423.0
assS'rs-6d-c3_obj2'
p103
(dp104
g3
(lp105
I808
aI808
aI808
aI808
aI808
aI808
aI808
aI808
aI808
aI808
aI808
aI808
aI808
aI808
aI808
aI808
aI808
aI808
aI808
aI808
asg5
(lp106
F0.0
aF0.0
aF2.0
aF1.0
aF0.0
aF139.0
aF0.0
aF0.0
aF0.0
aF0.0
aF0.0
aF0.0
aF3.0
aF0.0
aF3.0
aF8.0
aF68.0
aF9.0
aF9.0
aF0.0
asg7
(lp107
F25.0
aF41.0
aF23.0
aF76.0
aF38.0
aF19.0
aF47.0
aF49.0
aF19.0
aF35.0
aF70.0
aF14.0
aF17.0
aF16.0
aF16.0
aF21.0
aF27.0
aF21.0
aF19.0
aF26.0
asg9
(lp108
I3
aI0
aI0
aI0
aI0
aI0
aI0
aI2
aI1
aI0
aI0
aI5
aI1
aI3
aI1
aI3
aI3
aI1
aI0
aI7
asg11
(lp109
F1.0
aF0.0
aF2.0
aF1.0
aF3.0
aF0.0
aF6.0
aF1.0
aF2.0
aF0.0
aF5.0
aF1.0
aF1.0
aF6.0
aF0.0
aF0.0
aF0.0
aF2.0
aF1.0
aF0.0
asg13
(lp110
F759.0
aF670.0
aF515.0
aF632.0
aF635.0
aF979.0
aF463.0
aF736.0
aF736.0
aF654.0
aF1057.0
aF881.0
aF613.0
aF1049.0
aF685.0
aF674.0
aF461.0
aF757.0
aF688.0
aF667.0
assS'rs-6d-c3_obj1'
p111
(dp112
g3
(lp113
I452
aI452
aI452
aI452
aI452
aI452
aI452
aI452
aI452
aI452
aI452
aI452
aI452
aI452
aI452
aI452
aI452
aI452
aI452
aI452
asg5
(lp114
F20.0
aF1.0
aF1.0
aF25.0
aF0.0
aF0.0
aF3.0
aF24.0
aF48.0
aF0.0
aF5.0
aF0.0
aF0.0
aF3.0
aF125.0
aF0.0
aF26.0
aF18.0
aF0.0
aF0.0
asg7
(lp115
F17.0
aF20.0
aF15.0
aF28.0
aF17.0
aF23.0
aF15.0
aF36.0
aF54.0
aF14.0
aF101.0
aF14.0
aF14.0
aF42.0
aF45.0
aF60.0
aF27.0
aF16.0
aF37.0
aF37.0
asg9
(lp116
I0
aI0
aI1
aI0
aI2
aI0
aI0
aI0
aI0
aI0
aI0
aI0
aI1
aI0
aI0
aI0
aI0
aI1
aI1
aI0
asg11
(lp117
F0.0
aF0.0
aF0.0
aF0.0
aF0.0
aF1.0
aF1.0
aF0.0
aF0.0
aF0.0
aF0.0
aF0.0
aF0.0
aF0.0
aF0.0
aF0.0
aF0.0
aF0.0
aF0.0
aF1.0
asg13
(lp118
F559.0
aF399.0
aF457.0
aF962.0
aF505.0
aF570.0
aF1041.0
aF566.0
aF930.0
aF736.0
aF443.0
aF686.0
aF712.0
aF680.0
aF813.0
aF504.0
aF1535.0
aF774.0
aF327.0
aF627.0
assS'Apache_AllMeasurements'
p119
(dp120
g3
(lp121
I45
aI45
aI45
aI45
aI45
aI45
aI45
aI45
aI45
aI45
aI45
aI45
aI45
aI45
aI45
aI45
aI45
aI45
aI45
aI45
asg5
(lp122
F0.0
aF2.0
aF0.0
aF0.0
aF0.0
aF0.0
aF0.0
aF0.0
aF0.0
aF0.0
aF1.0
aF0.0
aF0.0
aF0.0
aF0.0
aF0.0
aF0.0
aF0.0
aF0.0
aF0.0
asg7
(lp123
F62.0
aF26.0
aF17.0
aF22.0
aF16.0
aF75.0
aF24.0
aF25.0
aF14.0
aF30.0
aF16.0
aF28.0
aF24.0
aF18.0
aF30.0
aF30.0
aF26.0
aF21.0
aF32.0
aF21.0
asg9
(lp124
I0
aI2
aI0
aI1
aI1
aI0
aI0
aI0
aI0
aI2
aI0
aI0
aI0
aI0
aI0
aI8
aI0
aI0
aI0
aI0
asg11
(lp125
F0.0
aF2.0
aF2.0
aF1.0
aF16.0
aF0.0
aF0.0
aF0.0
aF0.0
aF1.0
aF0.0
aF0.0
aF0.0
aF0.0
aF0.0
aF0.0
aF0.0
aF0.0
aF0.0
aF1.0
asg13
(lp126
F49.0
aF10.0
aF20.0
aF20.0
aF11.0
aF12.0
aF19.0
aF22.0
aF13.0
aF17.0
aF25.0
aF18.0
aF10.0
aF14.0
aF18.0
aF20.0
aF11.0
aF11.0
aF14.0
aF15.0
assS'wc+sol-3d-c4-obj2'
p127
(dp128
g3
(lp129
I33
aI33
aI33
aI33
aI33
aI33
aI33
aI33
aI33
aI33
aI33
aI33
aI33
aI33
aI33
aI33
aI33
aI33
aI33
aI33
asg5
(lp130
F1.0
aF0.0
aF0.0
aF0.0
aF0.0
aF1.0
aF0.0
aF0.0
aF2.0
aF0.0
aF0.0
aF0.0
aF1.0
aF2.0
aF0.0
aF0.0
aF0.0
aF0.0
aF2.0
aF0.0
asg7
(lp131
F20.0
aF18.0
aF48.0
aF19.0
aF77.0
aF21.0
aF14.0
aF42.0
aF24.0
aF16.0
aF17.0
aF14.0
aF16.0
aF22.0
aF45.0
aF19.0
aF34.0
aF17.0
aF18.0
aF18.0
asg9
(lp132
I0
aI1
aI0
aI0
aI0
aI0
aI0
aI0
aI1
aI0
aI0
aI0
aI0
aI0
aI0
aI1
aI0
aI0
aI0
aI0
asg11
(lp133
F0.0
aF0.0
aF0.0
aF0.0
aF0.0
aF0.0
aF0.0
aF0.0
aF0.0
aF0.0
aF0.0
aF0.0
aF0.0
aF0.0
aF0.0
aF0.0
aF1.0
aF1.0
aF0.0
aF0.0
asg13
(lp134
F77.0
aF77.0
aF77.0
aF77.0
aF77.0
aF77.0
aF77.0
aF77.0
aF77.0
aF77.0
aF77.0
aF77.0
aF77.0
aF77.0
aF77.0
aF77.0
aF77.0
aF77.0
aF77.0
aF77.0
assS'wc+sol-3d-c4-obj1'
p135
(dp136
g3
(lp137
I75
aI75
aI75
aI75
aI75
aI75
aI75
aI75
aI75
aI75
aI75
aI75
aI75
aI75
aI75
aI75
aI75
aI75
aI75
aI75
asg5
(lp138
F0.0
aF0.0
aF0.0
aF0.0
aF0.0
aF0.0
aF0.0
aF0.0
aF0.0
aF3.0
aF0.0
aF0.0
aF0.0
aF0.0
aF0.0
aF0.0
aF2.0
aF0.0
aF0.0
aF0.0
asg7
(lp139
F21.0
aF19.0
aF16.0
aF39.0
aF45.0
aF24.0
aF14.0
aF27.0
aF24.0
aF16.0
aF66.0
aF15.0
aF30.0
aF20.0
aF30.0
aF32.0
aF22.0
aF18.0
aF34.0
aF18.0
asg9
(lp140
I0
aI0
aI0
aI0
aI0
aI0
aI0
aI0
aI0
aI0
aI0
aI0
aI0
aI0
aI0
aI0
aI0
aI0
aI0
aI0
asg11
(lp141
F0.0
aF0.0
aF0.0
aF0.0
aF0.0
aF0.0
aF0.0
aF0.0
aF0.0
aF0.0
aF0.0
aF0.0
aF0.0
aF0.0
aF0.0
aF0.0
aF0.0
aF0.0
aF0.0
aF0.0
asg13
(lp142
F77.0
aF77.0
aF77.0
aF77.0
aF77.0
aF68.0
aF75.0
aF77.0
aF77.0
aF57.0
aF65.0
aF77.0
aF71.0
aF77.0
aF48.0
aF69.0
aF77.0
aF50.0
aF77.0
aF77.0
assS'wc+rs-3d-c4-obj1'
p143
(dp144
g3
(lp145
I76
aI76
aI76
aI76
aI76
aI76
aI76
aI76
aI76
aI76
aI76
aI76
aI76
aI76
aI76
aI76
aI76
aI76
aI76
aI76
asg5
(lp146
F2.0
aF0.0
aF0.0
aF0.0
aF0.0
aF0.0
aF0.0
aF0.0
aF0.0
aF0.0
aF0.0
aF2.0
aF0.0
aF0.0
aF0.0
aF0.0
aF0.0
aF0.0
aF0.0
aF3.0
asg7
(lp147
F14.0
aF14.0
aF33.0
aF31.0
aF41.0
aF17.0
aF28.0
aF28.0
aF30.0
aF42.0
aF41.0
aF18.0
aF28.0
aF38.0
aF23.0
aF50.0
aF17.0
aF27.0
aF16.0
aF15.0
asg9
(lp148
I0
aI0
aI0
aI0
aI0
aI0
aI0
aI0
aI0
aI0
aI0
aI0
aI0
aI0
aI0
aI0
aI0
aI0
aI0
aI0
asg11
(lp149
F0.0
aF0.0
aF0.0
aF0.0
aF0.0
aF0.0
aF0.0
aF0.0
aF0.0
aF0.0
aF0.0
aF0.0
aF0.0
aF0.0
aF0.0
aF0.0
aF0.0
aF0.0
aF0.0
aF0.0
asg13
(lp150
F40.0
aF54.0
aF67.0
aF77.0
aF76.0
aF73.0
aF45.0
aF77.0
aF62.0
aF51.0
aF46.0
aF44.0
aF77.0
aF64.0
aF22.0
aF55.0
aF63.0
aF64.0
aF42.0
aF36.0
assS'wc+rs-3d-c4-obj2'
p151
(dp152
g3
(lp153
I38
aI38
aI38
aI38
aI38
aI38
aI38
aI38
aI38
aI38
aI38
aI38
aI38
aI38
aI38
aI38
aI38
aI38
aI38
aI38
asg5
(lp154
F0.0
aF0.0
aF0.0
aF0.0
aF1.0
aF0.0
aF0.0
aF0.0
aF0.0
aF0.0
aF0.0
aF0.0
aF8.0
aF0.0
aF0.0
aF0.0
aF0.0
aF0.0
aF0.0
aF3.0
asg7
(lp155
F14.0
aF23.0
aF20.0
aF15.0
aF15.0
aF23.0
aF23.0
aF26.0
aF37.0
aF33.0
aF14.0
aF21.0
aF35.0
aF37.0
aF18.0
aF14.0
aF14.0
aF31.0
aF18.0
aF15.0
asg9
(lp156
I0
aI0
aI0
aI0
aI0
aI0
aI0
aI0
aI0
aI0
aI0
aI0
aI0
aI0
aI0
aI0
aI0
aI0
aI0
aI1
asg11
(lp157
F0.0
aF0.0
aF0.0
aF0.0
aF0.0
aF0.0
aF0.0
aF0.0
aF0.0
aF0.0
aF0.0
aF0.0
aF0.0
aF0.0
aF0.0
aF0.0
aF0.0
aF0.0
aF0.0
aF0.0
asg13
(lp158
F77.0
aF77.0
aF77.0
aF77.0
aF77.0
aF77.0
aF77.0
aF77.0
aF77.0
aF77.0
aF77.0
aF77.0
aF77.0
aF77.0
aF77.0
aF77.0
aF77.0
aF77.0
aF77.0
aF77.0
assS'sort_256_obj2'
p159
(dp160
g3
(lp161
I45
aI45
aI45
aI45
aI45
aI45
aI45
aI45
aI45
aI45
aI45
aI45
aI45
aI45
aI45
aI45
aI45
aI45
aI45
aI45
asg5
(lp162
F1.0
aF0.0
aF0.0
aF0.0
aF0.0
aF0.0
aF0.0
aF0.0
aF0.0
aF0.0
aF6.0
aF0.0
aF0.0
aF0.0
aF0.0
aF0.0
aF0.0
aF0.0
aF0.0
aF0.0
asg7
(lp163
F21.0
aF25.0
aF31.0
aF16.0
aF31.0
aF24.0
aF25.0
aF16.0
aF33.0
aF15.0
aF30.0
aF22.0
aF19.0
aF49.0
aF54.0
aF39.0
aF53.0
aF18.0
aF47.0
aF22.0
asg9
(lp164
I0
aI0
aI0
aI0
aI0
aI0
aI0
aI0
aI0
aI0
aI0
aI0
aI0
aI0
aI0
aI0
aI0
aI0
aI0
aI0
asg11
(lp165
F0.0
aF0.0
aF0.0
aF0.0
aF0.0
aF0.0
aF0.0
aF0.0
aF0.0
aF0.0
aF0.0
aF0.0
aF4.0
aF0.0
aF0.0
aF0.0
aF0.0
aF0.0
aF0.0
aF0.0
asg13
(lp166
F20.0
aF13.0
aF56.0
aF25.0
aF37.0
aF46.0
aF22.0
aF11.0
aF65.0
aF13.0
aF23.0
aF30.0
aF42.0
aF12.0
aF26.0
aF32.0
aF31.0
aF37.0
aF24.0
aF43.0
assS'sol-6d-c2-obj1'
p167
(dp168
g3
(lp169
I105
aI105
aI105
aI105
aI105
aI105
aI105
aI105
aI105
aI105
aI105
aI105
aI105
aI105
aI105
aI105
aI105
aI105
aI105
aI105
asg5
(lp170
F6.0
aF7.0
aF0.0
aF14.0
aF0.0
aF9.0
aF5.0
aF2.0
aF2.0
aF11.0
aF4.0
aF1.0
aF3.0
aF3.0
aF4.0
aF2.0
aF2.0
aF3.0
aF32.0
aF8.0
asg7
(lp171
F27.0
aF30.0
aF19.0
aF25.0
aF17.0
aF40.0
aF15.0
aF41.0
aF40.0
aF56.0
aF113.0
aF50.0
aF42.0
aF33.0
aF45.0
aF28.0
aF39.0
aF22.0
aF15.0
aF16.0
asg9
(lp172
I182
aI16
aI0
aI0
aI13
aI5
aI2
aI1
aI5
aI40
aI1
aI0
aI1
aI4
aI6
aI178
aI2
aI2
aI2
aI3
asg11
(lp173
F4.0
aF4.0
aF11.0
aF5.0
aF3.0
aF4.0
aF2.0
aF0.0
aF2.0
aF8.0
aF2.0
aF6.0
aF3.0
aF2.0
aF3.0
aF3.0
aF2.0
aF0.0
aF7.0
aF10.0
asg13
(lp174
F1145.0
aF1145.0
aF1145.0
aF1145.0
aF1145.0
aF1145.0
aF1145.0
aF1145.0
aF1145.0
aF1145.0
aF1145.0
aF1145.0
aF1145.0
aF1145.0
aF1145.0
aF1145.0
aF1145.0
aF1145.0
aF1145.0
aF1145.0
assS'sol-6d-c2-obj2'
p175
(dp176
g3
(lp177
I323
aI323
aI323
aI323
aI323
aI323
aI323
aI323
aI323
aI323
aI323
aI323
aI323
aI323
aI323
aI323
aI323
aI323
aI323
aI323
asg5
(lp178
F5.0
aF5.0
aF50.0
aF140.0
aF3.0
aF5.0
aF2.0
aF21.0
aF1.0
aF0.0
aF11.0
aF0.0
aF1.0
aF18.0
aF0.0
aF0.0
aF20.0
aF14.0
aF0.0
aF22.0
asg7
(lp179
F37.0
aF30.0
aF21.0
aF23.0
aF44.0
aF32.0
aF19.0
aF34.0
aF22.0
aF18.0
aF21.0
aF29.0
aF17.0
aF48.0
aF41.0
aF43.0
aF83.0
aF21.0
aF23.0
aF18.0
asg9
(lp180
I0
aI0
aI0
aI0
aI0
aI0
aI0
aI0
aI0
aI0
aI1
aI1
aI2
aI0
aI0
aI2
aI0
aI0
aI1
aI0
asg11
(lp181
F0.0
aF5.0
aF0.0
aF0.0
aF1.0
aF0.0
aF0.0
aF1.0
aF0.0
aF0.0
aF0.0
aF0.0
aF2.0
aF0.0
aF0.0
aF1.0
aF0.0
aF0.0
aF0.0
aF1.0
asg13
(lp182
F1143.0
aF1143.0
aF1143.0
aF1143.0
aF1143.0
aF1143.0
aF1143.0
aF1143.0
aF1143.0
aF1143.0
aF1143.0
aF1143.0
aF1143.0
aF1143.0
aF1143.0
aF1143.0
aF1143.0
aF1143.0
aF1143.0
aF1143.0
ass.