(dp0
S'./Data/Apache_AllMeasurements.csv'
p1
(dp2
F0.4
(dp3
S'rank-based'
p4
(dp5
S'mres'
p6
(lp7
cnumpy.core.multiarray
scalar
p8
(cnumpy
dtype
p9
(S'f8'
p10
I0
I1
tp11
Rp12
(I3
S'<'
p13
NNNI-1
I-1
I0
tp14
bS'\xc8\x99\x11L_\xc2\xb7?'
p15
tp16
Rp17
ag8
(g12
S'*\xd0-\xd1"\xf5\xc2?'
p18
tp19
Rp20
ag8
(g12
S'\x83\x8a\xda\x17jh\xb4?'
p21
tp22
Rp23
ag8
(g12
S'u#\xe4\xe5?#\xb7?'
p24
tp25
Rp26
ag8
(g12
S'\xdd\xb8la\x1c\x97\xd2?'
p27
tp28
Rp29
ag8
(g12
S'\x12\x0ei-\xce:\xb8?'
p30
tp31
Rp32
ag8
(g12
S'a\x04l\x959\xcf\xb6?'
p33
tp34
Rp35
ag8
(g12
S'\xab\x96\x8d\xe3o\x8a\xbc?'
p36
tp37
Rp38
ag8
(g12
S'9I \x85\x15\x17\xba?'
p39
tp40
Rp41
ag8
(g12
S'\x8f\x90\xa6\x1f^?\xce?'
p42
tp43
Rp44
ag8
(g12
S'S\xd6R\xd2\xf9@\xcd?'
p45
tp46
Rp47
ag8
(g12
S'?\x0ex+I4\xb4?'
p48
tp49
Rp50
ag8
(g12
S'\xcbSr\x08m\xc5\xb5?'
p51
tp52
Rp53
ag8
(g12
S'\xdb\x8b~\x08/G\xbe?'
p54
tp55
Rp56
ag8
(g12
S'Li7\xf3\xadp\xc0?'
p57
tp58
Rp59
ag8
(g12
S'\xd36\x8dJ*M\xb9?'
p60
tp61
Rp62
ag8
(g12
S'PX\xc4\x9e\x18\xaa\xbb?'
p63
tp64
Rp65
ag8
(g12
S'X\xf5\x18zW\xc5\xb2?'
p66
tp67
Rp68
ag8
(g12
S'\xa7\xf7|\x93\x88;\xb8?'
p69
tp70
Rp71
ag8
(g12
S'\xdcr\xab\xe7B\xbe\xb5?'
p72
tp73
Rp74
asS'train_set_size'
p75
(lp76
I24
aI21
aI40
aI41
aI14
aI46
aI24
aI17
aI44
aI15
aI15
aI28
aI55
aI24
aI17
aI14
aI22
aI58
aI15
aI63
asS'min_rank'
p77
(lp78
I0
aI1
aI0
aI1
aI0
aI1
aI0
aI0
aI0
aI0
aI0
aI0
aI0
aI0
aI0
aI0
aI0
aI1
aI0
aI0
assss.